Archive member included because of file (symbol)

c:/devkitPro/libnds/lib\libfat.a(libfat.o)
                              main.o (fatInitDefault)
c:/devkitPro/libnds/lib\libfat.a(partition.o)
                              c:/devkitPro/libnds/lib\libfat.a(libfat.o) (_FAT_partition_constructor)
c:/devkitPro/libnds/lib\libfat.a(cache.o)
                              c:/devkitPro/libnds/lib\libfat.a(partition.o) (_FAT_cache_constructor)
c:/devkitPro/libnds/lib\libfat.a(directory.o)
                              c:/devkitPro/libnds/lib\libfat.a(libfat.o) (_FAT_directory_getVolumeLabel)
c:/devkitPro/libnds/lib\libfat.a(disc.o)
                              c:/devkitPro/libnds/lib\libfat.a(libfat.o) (_FAT_disc_interfaces)
c:/devkitPro/libnds/lib\libfat.a(fatdir.o)
                              c:/devkitPro/libnds/lib\libfat.a(libfat.o) (_FAT_stat_r)
c:/devkitPro/libnds/lib\libfat.a(fatfile.o)
                              c:/devkitPro/libnds/lib\libfat.a(libfat.o) (_FAT_open_r)
c:/devkitPro/libnds/lib\libfat.a(file_allocation_table.o)
                              c:/devkitPro/libnds/lib\libfat.a(directory.o) (_FAT_fat_nextCluster)
c:/devkitPro/libnds/lib\libfat.a(filetime.o)
                              c:/devkitPro/libnds/lib\libfat.a(fatdir.o) (_FAT_filetime_getTimeFromRTC)
c:/devkitPro/libnds/lib\libfat.a(lock.o)
                              c:/devkitPro/libnds/lib\libfat.a(partition.o) (_FAT_lock_init)
c:/devkitPro/libnds/lib\libnds9.a(console.o)
                              main.o (consoleDemoInit)
c:/devkitPro/libnds/lib\libnds9.a(keys.o)
                              main.o (scanKeys)
c:/devkitPro/libnds/lib\libnds9.a(dldi.o)
                              c:/devkitPro/libnds/lib\libfat.a(disc.o) (dldiGetInternal)
c:/devkitPro/libnds/lib\libnds9.a(dsi_sd.o)
                              c:/devkitPro/libnds/lib\libfat.a(disc.o) (__io_dsisd)
c:/devkitPro/libnds/lib\libnds9.a(initSystem.o)
                              c:/devkitpro/devkitarm/bin/../lib/gcc/arm-eabi/4.7.0/../../../../arm-eabi/lib/thumb/ds_arm9_crt0.o (initSystem)
c:/devkitPro/libnds/lib\libnds9.a(fifosystem.o)
                              c:/devkitPro/libnds/lib\libnds9.a(dsi_sd.o) (fifoSendValue32)
c:/devkitPro/libnds/lib\libnds9.a(interrupts.o)
                              c:/devkitPro/libnds/lib\libnds9.a(fifosystem.o) (irqSet)
c:/devkitPro/libnds/lib\libnds9.a(libnds_exit.o)
                              c:/devkitpro/devkitarm/bin/../lib/gcc/arm-eabi/4.7.0/../../../../arm-eabi/lib/thumb/ds_arm9_crt0.o (__libnds_exit)
c:/devkitPro/libnds/lib\libnds9.a(dcache.o)
                              c:/devkitPro/libnds/lib\libnds9.a(dsi_sd.o) (DC_FlushRange)
c:/devkitPro/libnds/lib\libnds9.a(dldi_stub.o)
                              c:/devkitPro/libnds/lib\libnds9.a(dldi.o) (_io_dldi_stub)
c:/devkitPro/libnds/lib\libnds9.a(mpu_setup.o)
                              c:/devkitpro/devkitarm/bin/../lib/gcc/arm-eabi/4.7.0/../../../../arm-eabi/lib/thumb/ds_arm9_crt0.o (__libnds_mpu_setup)
c:/devkitPro/libnds/lib\libnds9.a(biosCalls.o)
                              c:/devkitPro/libnds/lib\libnds9.a(fifosystem.o) (swiIntrWait)
c:/devkitPro/libnds/lib\libnds9.a(debugprint.o)
                              c:/devkitPro/libnds/lib\libnds9.a(console.o) (nocashWrite)
c:/devkitPro/libnds/lib\libnds9.a(interruptDispatcher.o)
                              c:/devkitPro/libnds/lib\libnds9.a(interrupts.o) (IntrMain)
c:/devkitPro/libnds/lib\libnds9.a(swiSoftReset.o)
                              main.o (swiSoftReset)
c:/devkitPro/libnds/lib\libnds9.a(default_font.bin.o)
                              c:/devkitPro/libnds/lib\libnds9.a(console.o) (default_font_bin)
c:/devkitPro/libnds/lib\libnds9.a(background.o)
                              c:/devkitPro/libnds/lib\libnds9.a(console.o) (bgState)
c:/devkitPro/libnds/lib\libnds9.a(system.o)
                              c:/devkitPro/libnds/lib\libnds9.a(initSystem.o) (systemMsgHandler)
c:/devkitPro/libnds/lib\libnds9.a(trig.o)
                              c:/devkitPro/libnds/lib\libnds9.a(background.o) (sinLerp)
c:/devkitPro/libnds/lib\libnds9.a(video.o)
                              c:/devkitPro/libnds/lib\libnds9.a(initSystem.o) (vramDefault)
c:/devkitpro/devkitarm/bin/../lib/gcc/arm-eabi/4.7.0/thumb\libgcc.a(_udivsi3.o)
                              c:/devkitPro/libnds/lib\libfat.a(partition.o) (__aeabi_uidiv)
c:/devkitpro/devkitarm/bin/../lib/gcc/arm-eabi/4.7.0/thumb\libgcc.a(_divsi3.o)
                              c:/devkitPro/libnds/lib\libfat.a(directory.o) (__aeabi_idiv)
c:/devkitpro/devkitarm/bin/../lib/gcc/arm-eabi/4.7.0/thumb\libgcc.a(_dvmd_tls.o)
                              c:/devkitpro/devkitarm/bin/../lib/gcc/arm-eabi/4.7.0/thumb\libgcc.a(_udivsi3.o) (__aeabi_idiv0)
c:/devkitpro/devkitarm/bin/../lib/gcc/arm-eabi/4.7.0/thumb\libgcc.a(_muldi3.o)
                              c:/devkitPro/libnds/lib\libfat.a(partition.o) (__aeabi_lmul)
c:/devkitpro/devkitarm/bin/../lib/gcc/arm-eabi/4.7.0/../../../../arm-eabi/lib/thumb\libg.a(lib_a-bsearch.o)
                              c:/devkitPro/libnds/lib\libnds9.a(trig.o) (bsearch)
c:/devkitpro/devkitarm/bin/../lib/gcc/arm-eabi/4.7.0/../../../../arm-eabi/lib/thumb\libg.a(lib_a-ctype_.o)
                              c:/devkitPro/libnds/lib\libfat.a(directory.o) (__ctype_ptr__)
c:/devkitpro/devkitarm/bin/../lib/gcc/arm-eabi/4.7.0/../../../../arm-eabi/lib/thumb\libg.a(lib_a-fclose.o)
                              main.o (fclose)
c:/devkitpro/devkitarm/bin/../lib/gcc/arm-eabi/4.7.0/../../../../arm-eabi/lib/thumb\libg.a(lib_a-fflush.o)
                              c:/devkitpro/devkitarm/bin/../lib/gcc/arm-eabi/4.7.0/../../../../arm-eabi/lib/thumb\libg.a(lib_a-fclose.o) (_fflush_r)
c:/devkitpro/devkitarm/bin/../lib/gcc/arm-eabi/4.7.0/../../../../arm-eabi/lib/thumb\libg.a(lib_a-findfp.o)
                              c:/devkitpro/devkitarm/bin/../lib/gcc/arm-eabi/4.7.0/../../../../arm-eabi/lib/thumb\libg.a(lib_a-fclose.o) (__sinit)
c:/devkitpro/devkitarm/bin/../lib/gcc/arm-eabi/4.7.0/../../../../arm-eabi/lib/thumb\libg.a(lib_a-fopen.o)
                              main.o (fopen)
c:/devkitpro/devkitarm/bin/../lib/gcc/arm-eabi/4.7.0/../../../../arm-eabi/lib/thumb\libg.a(lib_a-freer.o)
                              c:/devkitpro/devkitarm/bin/../lib/gcc/arm-eabi/4.7.0/../../../../arm-eabi/lib/thumb\libg.a(lib_a-fclose.o) (_free_r)
c:/devkitpro/devkitarm/bin/../lib/gcc/arm-eabi/4.7.0/../../../../arm-eabi/lib/thumb\libg.a(lib_a-fseek.o)
                              c:/devkitpro/devkitarm/bin/../lib/gcc/arm-eabi/4.7.0/../../../../arm-eabi/lib/thumb\libg.a(lib_a-fopen.o) (_fseek_r)
c:/devkitpro/devkitarm/bin/../lib/gcc/arm-eabi/4.7.0/../../../../arm-eabi/lib/thumb\libg.a(lib_a-fwalk.o)
                              c:/devkitpro/devkitarm/bin/../lib/gcc/arm-eabi/4.7.0/../../../../arm-eabi/lib/thumb\libg.a(lib_a-findfp.o) (_fwalk)
c:/devkitpro/devkitarm/bin/../lib/gcc/arm-eabi/4.7.0/../../../../arm-eabi/lib/thumb\libg.a(lib_a-fwrite.o)
                              main.o (fwrite)
c:/devkitpro/devkitarm/bin/../lib/gcc/arm-eabi/4.7.0/../../../../arm-eabi/lib/thumb\libg.a(lib_a-impure.o)
                              c:/devkitpro/devkitarm/bin/../lib/gcc/arm-eabi/4.7.0/../../../../arm-eabi/lib/thumb\libg.a(lib_a-fflush.o) (_global_impure_ptr)
c:/devkitpro/devkitarm/bin/../lib/gcc/arm-eabi/4.7.0/../../../../arm-eabi/lib/thumb\libg.a(lib_a-init.o)
                              c:/devkitpro/devkitarm/bin/../lib/gcc/arm-eabi/4.7.0/../../../../arm-eabi/lib/thumb/ds_arm9_crt0.o (__libc_init_array)
c:/devkitpro/devkitarm/bin/../lib/gcc/arm-eabi/4.7.0/../../../../arm-eabi/lib/thumb\libg.a(lib_a-iprintf.o)
                              main.o (iprintf)
c:/devkitpro/devkitarm/bin/../lib/gcc/arm-eabi/4.7.0/../../../../arm-eabi/lib/thumb\libg.a(lib_a-lcltime_r.o)
                              c:/devkitPro/libnds/lib\libfat.a(filetime.o) (localtime_r)
c:/devkitpro/devkitarm/bin/../lib/gcc/arm-eabi/4.7.0/../../../../arm-eabi/lib/thumb\libg.a(lib_a-locale.o)
                              c:/devkitPro/libnds/lib\libfat.a(directory.o) (__locale_mb_cur_max)
c:/devkitpro/devkitarm/bin/../lib/gcc/arm-eabi/4.7.0/../../../../arm-eabi/lib/thumb\libg.a(lib_a-makebuf.o)
                              c:/devkitpro/devkitarm/bin/../lib/gcc/arm-eabi/4.7.0/../../../../arm-eabi/lib/thumb\libg.a(lib_a-fseek.o) (__smakebuf_r)
c:/devkitpro/devkitarm/bin/../lib/gcc/arm-eabi/4.7.0/../../../../arm-eabi/lib/thumb\libg.a(lib_a-malloc.o)
                              c:/devkitPro/libnds/lib\libfat.a(libfat.o) (malloc)
c:/devkitpro/devkitarm/bin/../lib/gcc/arm-eabi/4.7.0/../../../../arm-eabi/lib/thumb\libg.a(lib_a-mallocr.o)
                              c:/devkitpro/devkitarm/bin/../lib/gcc/arm-eabi/4.7.0/../../../../arm-eabi/lib/thumb\libg.a(lib_a-findfp.o) (_malloc_r)
c:/devkitpro/devkitarm/bin/../lib/gcc/arm-eabi/4.7.0/../../../../arm-eabi/lib/thumb\libg.a(lib_a-mbrtowc.o)
                              c:/devkitPro/libnds/lib\libfat.a(directory.o) (mbrtowc)
c:/devkitpro/devkitarm/bin/../lib/gcc/arm-eabi/4.7.0/../../../../arm-eabi/lib/thumb\libg.a(lib_a-mbsrtowcs.o)
                              c:/devkitPro/libnds/lib\libfat.a(directory.o) (mbsrtowcs)
c:/devkitpro/devkitarm/bin/../lib/gcc/arm-eabi/4.7.0/../../../../arm-eabi/lib/thumb\libg.a(lib_a-mbtowc_r.o)
                              c:/devkitpro/devkitarm/bin/../lib/gcc/arm-eabi/4.7.0/../../../../arm-eabi/lib/thumb\libg.a(lib_a-locale.o) (__utf8_mbtowc)
c:/devkitpro/devkitarm/bin/../lib/gcc/arm-eabi/4.7.0/../../../../arm-eabi/lib/thumb\libg.a(lib_a-memcmp.o)
                              c:/devkitPro/libnds/lib\libfat.a(partition.o) (memcmp)
c:/devkitpro/devkitarm/bin/../lib/gcc/arm-eabi/4.7.0/../../../../arm-eabi/lib/thumb\libg.a(lib_a-memcpy-stub.o)
                              c:/devkitPro/libnds/lib\libfat.a(libfat.o) (memcpy)
c:/devkitpro/devkitarm/bin/../lib/gcc/arm-eabi/4.7.0/../../../../arm-eabi/lib/thumb\libg.a(lib_a-memmove.o)
                              c:/devkitPro/libnds/lib\libfat.a(directory.o) (memmove)
c:/devkitpro/devkitarm/bin/../lib/gcc/arm-eabi/4.7.0/../../../../arm-eabi/lib/thumb\libg.a(lib_a-memset.o)
                              c:/devkitPro/libnds/lib\libfat.a(partition.o) (memset)
c:/devkitpro/devkitarm/bin/../lib/gcc/arm-eabi/4.7.0/../../../../arm-eabi/lib/thumb\libg.a(lib_a-mktime.o)
                              c:/devkitPro/libnds/lib\libfat.a(filetime.o) (mktime)
c:/devkitpro/devkitarm/bin/../lib/gcc/arm-eabi/4.7.0/../../../../arm-eabi/lib/thumb\libg.a(lib_a-mktm_r.o)
                              c:/devkitpro/devkitarm/bin/../lib/gcc/arm-eabi/4.7.0/../../../../arm-eabi/lib/thumb\libg.a(lib_a-mktime.o) (__tzcalc_limits)
c:/devkitpro/devkitarm/bin/../lib/gcc/arm-eabi/4.7.0/../../../../arm-eabi/lib/thumb\libg.a(lib_a-mlock.o)
                              c:/devkitpro/devkitarm/bin/../lib/gcc/arm-eabi/4.7.0/../../../../arm-eabi/lib/thumb\libg.a(lib_a-freer.o) (__malloc_lock)
c:/devkitpro/devkitarm/bin/../lib/gcc/arm-eabi/4.7.0/../../../../arm-eabi/lib/thumb\libg.a(lib_a-refill.o)
                              c:/devkitpro/devkitarm/bin/../lib/gcc/arm-eabi/4.7.0/../../../../arm-eabi/lib/thumb\libg.a(lib_a-fseek.o) (__srefill_r)
c:/devkitpro/devkitarm/bin/../lib/gcc/arm-eabi/4.7.0/../../../../arm-eabi/lib/thumb\libg.a(lib_a-setvbuf.o)
                              c:/devkitPro/libnds/lib\libnds9.a(console.o) (setvbuf)
c:/devkitpro/devkitarm/bin/../lib/gcc/arm-eabi/4.7.0/../../../../arm-eabi/lib/thumb\libg.a(lib_a-siscanf.o)
                              c:/devkitPro/libnds/lib\libnds9.a(console.o) (siscanf)
c:/devkitpro/devkitarm/bin/../lib/gcc/arm-eabi/4.7.0/../../../../arm-eabi/lib/thumb\libg.a(lib_a-sprintf.o)
                              c:/devkitPro/libnds/lib\libfat.a(libfat.o) (sprintf)
c:/devkitpro/devkitarm/bin/../lib/gcc/arm-eabi/4.7.0/../../../../arm-eabi/lib/thumb\libg.a(lib_a-stdio.o)
                              c:/devkitpro/devkitarm/bin/../lib/gcc/arm-eabi/4.7.0/../../../../arm-eabi/lib/thumb\libg.a(lib_a-findfp.o) (__sread)
c:/devkitpro/devkitarm/bin/../lib/gcc/arm-eabi/4.7.0/../../../../arm-eabi/lib/thumb\libg.a(lib_a-strcasecmp.o)
                              c:/devkitpro/devkitarm/bin/../lib/gcc/arm-eabi/4.7.0/../../../../arm-eabi/lib/thumb\libg.a(lib_a-locale.o) (strcasecmp)
c:/devkitpro/devkitarm/bin/../lib/gcc/arm-eabi/4.7.0/../../../../arm-eabi/lib/thumb\libg.a(lib_a-strcat.o)
                              c:/devkitpro/devkitarm/bin/../lib/gcc/arm-eabi/4.7.0/../../../../arm-eabi/lib/thumb\libg.a(lib_a-locale.o) (strcat)
c:/devkitpro/devkitarm/bin/../lib/gcc/arm-eabi/4.7.0/../../../../arm-eabi/lib/thumb\libg.a(lib_a-strchr.o)
                              c:/devkitPro/libnds/lib\libfat.a(directory.o) (strchr)
c:/devkitpro/devkitarm/bin/../lib/gcc/arm-eabi/4.7.0/../../../../arm-eabi/lib/thumb\libg.a(lib_a-strcmp.o)
                              c:/devkitPro/libnds/lib\libfat.a(directory.o) (strcmp)
c:/devkitpro/devkitarm/bin/../lib/gcc/arm-eabi/4.7.0/../../../../arm-eabi/lib/thumb\libg.a(lib_a-strcpy.o)
                              c:/devkitPro/libnds/lib\libfat.a(libfat.o) (strcpy)
c:/devkitpro/devkitarm/bin/../lib/gcc/arm-eabi/4.7.0/../../../../arm-eabi/lib/thumb\libg.a(lib_a-strlcpy.o)
                              c:/devkitpro/devkitarm/bin/../lib/gcc/arm-eabi/4.7.0/../../../../arm-eabi/lib/thumb\libg.a(lib_a-locale.o) (strlcpy)
c:/devkitpro/devkitarm/bin/../lib/gcc/arm-eabi/4.7.0/../../../../arm-eabi/lib/thumb\libg.a(lib_a-strlen.o)
                              c:/devkitPro/libnds/lib\libfat.a(libfat.o) (strlen)
c:/devkitpro/devkitarm/bin/../lib/gcc/arm-eabi/4.7.0/../../../../arm-eabi/lib/thumb\libg.a(lib_a-strncasecmp.o)
                              c:/devkitPro/libnds/lib\libfat.a(libfat.o) (strncasecmp)
c:/devkitpro/devkitarm/bin/../lib/gcc/arm-eabi/4.7.0/../../../../arm-eabi/lib/thumb\libg.a(lib_a-strncmp.o)
                              c:/devkitPro/libnds/lib\libfat.a(libfat.o) (strncmp)
c:/devkitpro/devkitarm/bin/../lib/gcc/arm-eabi/4.7.0/../../../../arm-eabi/lib/thumb\libg.a(lib_a-strncpy.o)
                              c:/devkitPro/libnds/lib\libfat.a(libfat.o) (strncpy)
c:/devkitpro/devkitarm/bin/../lib/gcc/arm-eabi/4.7.0/../../../../arm-eabi/lib/thumb\libg.a(lib_a-strnlen.o)
                              c:/devkitPro/libnds/lib\libfat.a(directory.o) (strnlen)
c:/devkitpro/devkitarm/bin/../lib/gcc/arm-eabi/4.7.0/../../../../arm-eabi/lib/thumb\libg.a(lib_a-strpbrk.o)
                              c:/devkitPro/libnds/lib\libfat.a(directory.o) (strpbrk)
c:/devkitpro/devkitarm/bin/../lib/gcc/arm-eabi/4.7.0/../../../../arm-eabi/lib/thumb\libg.a(lib_a-strrchr.o)
                              c:/devkitPro/libnds/lib\libfat.a(libfat.o) (strrchr)
c:/devkitpro/devkitarm/bin/../lib/gcc/arm-eabi/4.7.0/../../../../arm-eabi/lib/thumb\libg.a(lib_a-strtol.o)
                              c:/devkitpro/devkitarm/bin/../lib/gcc/arm-eabi/4.7.0/../../../../arm-eabi/lib/thumb\libg.a(lib_a-locale.o) (_strtol_r)
c:/devkitpro/devkitarm/bin/../lib/gcc/arm-eabi/4.7.0/../../../../arm-eabi/lib/thumb\libg.a(lib_a-svfiscanf.o)
                              c:/devkitpro/devkitarm/bin/../lib/gcc/arm-eabi/4.7.0/../../../../arm-eabi/lib/thumb\libg.a(lib_a-siscanf.o) (__ssvfiscanf_r)
c:/devkitpro/devkitarm/bin/../lib/gcc/arm-eabi/4.7.0/../../../../arm-eabi/lib/thumb\libg.a(lib_a-svfprintf.o)
                              c:/devkitpro/devkitarm/bin/../lib/gcc/arm-eabi/4.7.0/../../../../arm-eabi/lib/thumb\libg.a(lib_a-sprintf.o) (_svfprintf_r)
c:/devkitpro/devkitarm/bin/../lib/gcc/arm-eabi/4.7.0/../../../../arm-eabi/lib/thumb\libg.a(lib_a-sysclose.o)
                              c:/devkitPro/libnds/lib\libnds9.a(dldi.o) (close)
c:/devkitpro/devkitarm/bin/../lib/gcc/arm-eabi/4.7.0/../../../../arm-eabi/lib/thumb\libg.a(lib_a-syslseek.o)
                              c:/devkitPro/libnds/lib\libnds9.a(dldi.o) (lseek)
c:/devkitpro/devkitarm/bin/../lib/gcc/arm-eabi/4.7.0/../../../../arm-eabi/lib/thumb\libg.a(lib_a-sysopen.o)
                              c:/devkitPro/libnds/lib\libnds9.a(dldi.o) (open)
c:/devkitpro/devkitarm/bin/../lib/gcc/arm-eabi/4.7.0/../../../../arm-eabi/lib/thumb\libg.a(lib_a-sysread.o)
                              c:/devkitPro/libnds/lib\libnds9.a(dldi.o) (read)
c:/devkitpro/devkitarm/bin/../lib/gcc/arm-eabi/4.7.0/../../../../arm-eabi/lib/thumb\libg.a(lib_a-time.o)
                              c:/devkitPro/libnds/lib\libfat.a(filetime.o) (time)
c:/devkitpro/devkitarm/bin/../lib/gcc/arm-eabi/4.7.0/../../../../arm-eabi/lib/thumb\libg.a(lib_a-towlower.o)
                              c:/devkitPro/libnds/lib\libfat.a(directory.o) (towlower)
c:/devkitpro/devkitarm/bin/../lib/gcc/arm-eabi/4.7.0/../../../../arm-eabi/lib/thumb\libg.a(lib_a-towupper.o)
                              c:/devkitPro/libnds/lib\libfat.a(directory.o) (towupper)
c:/devkitpro/devkitarm/bin/../lib/gcc/arm-eabi/4.7.0/../../../../arm-eabi/lib/thumb\libg.a(lib_a-tzlock.o)
                              c:/devkitpro/devkitarm/bin/../lib/gcc/arm-eabi/4.7.0/../../../../arm-eabi/lib/thumb\libg.a(lib_a-mktime.o) (__tz_lock)
c:/devkitpro/devkitarm/bin/../lib/gcc/arm-eabi/4.7.0/../../../../arm-eabi/lib/thumb\libg.a(lib_a-tzvars.o)
                              c:/devkitpro/devkitarm/bin/../lib/gcc/arm-eabi/4.7.0/../../../../arm-eabi/lib/thumb\libg.a(lib_a-mktime.o) (_daylight)
c:/devkitpro/devkitarm/bin/../lib/gcc/arm-eabi/4.7.0/../../../../arm-eabi/lib/thumb\libg.a(lib_a-ungetc.o)
                              c:/devkitpro/devkitarm/bin/../lib/gcc/arm-eabi/4.7.0/../../../../arm-eabi/lib/thumb\libg.a(lib_a-svfiscanf.o) (__submore)
c:/devkitpro/devkitarm/bin/../lib/gcc/arm-eabi/4.7.0/../../../../arm-eabi/lib/thumb\libg.a(lib_a-vfiprintf.o)
                              c:/devkitpro/devkitarm/bin/../lib/gcc/arm-eabi/4.7.0/../../../../arm-eabi/lib/thumb\libg.a(lib_a-iprintf.o) (_vfiprintf_r)
c:/devkitpro/devkitarm/bin/../lib/gcc/arm-eabi/4.7.0/../../../../arm-eabi/lib/thumb\libg.a(lib_a-wcrtomb.o)
                              c:/devkitpro/devkitarm/bin/../lib/gcc/arm-eabi/4.7.0/../../../../arm-eabi/lib/thumb\libg.a(lib_a-svfprintf.o) (_wcrtomb_r)
c:/devkitpro/devkitarm/bin/../lib/gcc/arm-eabi/4.7.0/../../../../arm-eabi/lib/thumb\libg.a(lib_a-wcsrtombs.o)
                              c:/devkitpro/devkitarm/bin/../lib/gcc/arm-eabi/4.7.0/../../../../arm-eabi/lib/thumb\libg.a(lib_a-svfprintf.o) (_wcsrtombs_r)
c:/devkitpro/devkitarm/bin/../lib/gcc/arm-eabi/4.7.0/../../../../arm-eabi/lib/thumb\libg.a(lib_a-wctob.o)
                              c:/devkitPro/libnds/lib\libfat.a(directory.o) (wctob)
c:/devkitpro/devkitarm/bin/../lib/gcc/arm-eabi/4.7.0/../../../../arm-eabi/lib/thumb\libg.a(lib_a-wctomb_r.o)
                              c:/devkitpro/devkitarm/bin/../lib/gcc/arm-eabi/4.7.0/../../../../arm-eabi/lib/thumb\libg.a(lib_a-locale.o) (__utf8_wctomb)
c:/devkitpro/devkitarm/bin/../lib/gcc/arm-eabi/4.7.0/../../../../arm-eabi/lib/thumb\libg.a(lib_a-wsetup.o)
                              c:/devkitpro/devkitarm/bin/../lib/gcc/arm-eabi/4.7.0/../../../../arm-eabi/lib/thumb\libg.a(lib_a-vfiprintf.o) (__swsetup_r)
c:/devkitpro/devkitarm/bin/../lib/gcc/arm-eabi/4.7.0/../../../../arm-eabi/lib/thumb\libg.a(lib_a-div.o)
                              c:/devkitpro/devkitarm/bin/../lib/gcc/arm-eabi/4.7.0/../../../../arm-eabi/lib/thumb\libg.a(lib_a-mktime.o) (div)
c:/devkitpro/devkitarm/bin/../lib/gcc/arm-eabi/4.7.0/../../../../arm-eabi/lib/thumb\libg.a(lib_a-dtoa.o)
                              c:/devkitpro/devkitarm/bin/../lib/gcc/arm-eabi/4.7.0/../../../../arm-eabi/lib/thumb\libg.a(lib_a-svfprintf.o) (_dtoa_r)
c:/devkitpro/devkitarm/bin/../lib/gcc/arm-eabi/4.7.0/../../../../arm-eabi/lib/thumb\libg.a(lib_a-flags.o)
                              c:/devkitpro/devkitarm/bin/../lib/gcc/arm-eabi/4.7.0/../../../../arm-eabi/lib/thumb\libg.a(lib_a-fopen.o) (__sflags)
c:/devkitpro/devkitarm/bin/../lib/gcc/arm-eabi/4.7.0/../../../../arm-eabi/lib/thumb\libg.a(lib_a-fputwc.o)
                              c:/devkitpro/devkitarm/bin/../lib/gcc/arm-eabi/4.7.0/../../../../arm-eabi/lib/thumb\libg.a(lib_a-vfiprintf.o) (_fputwc_r)
c:/devkitpro/devkitarm/bin/../lib/gcc/arm-eabi/4.7.0/../../../../arm-eabi/lib/thumb\libg.a(lib_a-fvwrite.o)
                              c:/devkitpro/devkitarm/bin/../lib/gcc/arm-eabi/4.7.0/../../../../arm-eabi/lib/thumb\libg.a(lib_a-fwrite.o) (__sfvwrite_r)
c:/devkitpro/devkitarm/bin/../lib/gcc/arm-eabi/4.7.0/../../../../arm-eabi/lib/thumb\libg.a(lib_a-getenv_r.o)
                              c:/devkitpro/devkitarm/bin/../lib/gcc/arm-eabi/4.7.0/../../../../arm-eabi/lib/thumb\libg.a(lib_a-locale.o) (_getenv_r)
c:/devkitpro/devkitarm/bin/../lib/gcc/arm-eabi/4.7.0/../../../../arm-eabi/lib/thumb\libg.a(lib_a-gettzinfo.o)
                              c:/devkitpro/devkitarm/bin/../lib/gcc/arm-eabi/4.7.0/../../../../arm-eabi/lib/thumb\libg.a(lib_a-mktime.o) (__gettzinfo)
c:/devkitpro/devkitarm/bin/../lib/gcc/arm-eabi/4.7.0/../../../../arm-eabi/lib/thumb\libg.a(lib_a-iswspace.o)
                              c:/devkitpro/devkitarm/bin/../lib/gcc/arm-eabi/4.7.0/../../../../arm-eabi/lib/thumb\libg.a(lib_a-svfiscanf.o) (iswspace)
c:/devkitpro/devkitarm/bin/../lib/gcc/arm-eabi/4.7.0/../../../../arm-eabi/lib/thumb\libg.a(lib_a-jp2uc.o)
                              c:/devkitpro/devkitarm/bin/../lib/gcc/arm-eabi/4.7.0/../../../../arm-eabi/lib/thumb\libg.a(lib_a-towlower.o) (_jp2uc)
c:/devkitpro/devkitarm/bin/../lib/gcc/arm-eabi/4.7.0/../../../../arm-eabi/lib/thumb\libg.a(lib_a-mbsnrtowcs.o)
                              c:/devkitpro/devkitarm/bin/../lib/gcc/arm-eabi/4.7.0/../../../../arm-eabi/lib/thumb\libg.a(lib_a-mbsrtowcs.o) (_mbsnrtowcs_r)
c:/devkitpro/devkitarm/bin/../lib/gcc/arm-eabi/4.7.0/../../../../arm-eabi/lib/thumb\libg.a(lib_a-memchr-stub.o)
                              c:/devkitpro/devkitarm/bin/../lib/gcc/arm-eabi/4.7.0/../../../../arm-eabi/lib/thumb\libg.a(lib_a-svfprintf.o) (memchr)
c:/devkitpro/devkitarm/bin/../lib/gcc/arm-eabi/4.7.0/../../../../arm-eabi/lib/thumb\libg.a(lib_a-mprec.o)
                              c:/devkitpro/devkitarm/bin/../lib/gcc/arm-eabi/4.7.0/../../../../arm-eabi/lib/thumb\libg.a(lib_a-dtoa.o) (_Balloc)
c:/devkitpro/devkitarm/bin/../lib/gcc/arm-eabi/4.7.0/../../../../arm-eabi/lib/thumb\libg.a(lib_a-reallocr.o)
                              c:/devkitpro/devkitarm/bin/../lib/gcc/arm-eabi/4.7.0/../../../../arm-eabi/lib/thumb\libg.a(lib_a-ungetc.o) (_realloc_r)
c:/devkitpro/devkitarm/bin/../lib/gcc/arm-eabi/4.7.0/../../../../arm-eabi/lib/thumb\libg.a(lib_a-sccl.o)
                              c:/devkitpro/devkitarm/bin/../lib/gcc/arm-eabi/4.7.0/../../../../arm-eabi/lib/thumb\libg.a(lib_a-svfiscanf.o) (__sccl)
c:/devkitpro/devkitarm/bin/../lib/gcc/arm-eabi/4.7.0/../../../../arm-eabi/lib/thumb\libg.a(lib_a-s_fpclassify.o)
                              c:/devkitpro/devkitarm/bin/../lib/gcc/arm-eabi/4.7.0/../../../../arm-eabi/lib/thumb\libg.a(lib_a-svfprintf.o) (__fpclassifyd)
c:/devkitpro/devkitarm/bin/../lib/gcc/arm-eabi/4.7.0/../../../../arm-eabi/lib/thumb\libg.a(lib_a-strtoll_r.o)
                              c:/devkitpro/devkitarm/bin/../lib/gcc/arm-eabi/4.7.0/../../../../arm-eabi/lib/thumb\libg.a(lib_a-svfiscanf.o) (_strtoll_r)
c:/devkitpro/devkitarm/bin/../lib/gcc/arm-eabi/4.7.0/../../../../arm-eabi/lib/thumb\libg.a(lib_a-strtoull_r.o)
                              c:/devkitpro/devkitarm/bin/../lib/gcc/arm-eabi/4.7.0/../../../../arm-eabi/lib/thumb\libg.a(lib_a-svfiscanf.o) (_strtoull_r)
c:/devkitpro/devkitarm/bin/../lib/gcc/arm-eabi/4.7.0/../../../../arm-eabi/lib/thumb\libg.a(lib_a-strtoul.o)
                              c:/devkitpro/devkitarm/bin/../lib/gcc/arm-eabi/4.7.0/../../../../arm-eabi/lib/thumb\libg.a(lib_a-svfiscanf.o) (_strtoul_r)
c:/devkitpro/devkitarm/bin/../lib/gcc/arm-eabi/4.7.0/../../../../arm-eabi/lib/thumb\libg.a(lib_a-svfiprintf.o)
                              c:/devkitpro/devkitarm/bin/../lib/gcc/arm-eabi/4.7.0/../../../../arm-eabi/lib/thumb\libg.a(lib_a-svfprintf.o) (__ssprint_r)
c:/devkitpro/devkitarm/bin/../lib/gcc/arm-eabi/4.7.0/../../../../arm-eabi/lib/thumb\libg.a(lib_a-wbuf.o)
                              c:/devkitpro/devkitarm/bin/../lib/gcc/arm-eabi/4.7.0/../../../../arm-eabi/lib/thumb\libg.a(lib_a-fputwc.o) (__swbuf_r)
c:/devkitpro/devkitarm/bin/../lib/gcc/arm-eabi/4.7.0/../../../../arm-eabi/lib/thumb\libg.a(lib_a-wcsnrtombs.o)
                              c:/devkitpro/devkitarm/bin/../lib/gcc/arm-eabi/4.7.0/../../../../arm-eabi/lib/thumb\libg.a(lib_a-wcsrtombs.o) (_wcsnrtombs_r)
c:/devkitpro/devkitarm/bin/../lib/gcc/arm-eabi/4.7.0/../../../../arm-eabi/lib/thumb\libg.a(lib_a-callocr.o)
                              c:/devkitpro/devkitarm/bin/../lib/gcc/arm-eabi/4.7.0/../../../../arm-eabi/lib/thumb\libg.a(lib_a-mprec.o) (_calloc_r)
c:/devkitpro/devkitarm/bin/../lib/gcc/arm-eabi/4.7.0/../../../../arm-eabi/lib/thumb\libg.a(lib_a-environ.o)
                              c:/devkitpro/devkitarm/bin/../lib/gcc/arm-eabi/4.7.0/../../../../arm-eabi/lib/thumb\libg.a(lib_a-getenv_r.o) (environ)
c:/devkitpro/devkitarm/bin/../lib/gcc/arm-eabi/4.7.0/../../../../arm-eabi/lib/thumb\libg.a(lib_a-envlock.o)
                              c:/devkitpro/devkitarm/bin/../lib/gcc/arm-eabi/4.7.0/../../../../arm-eabi/lib/thumb\libg.a(lib_a-getenv_r.o) (__env_lock)
c:/devkitpro/devkitarm/bin/../lib/gcc/arm-eabi/4.7.0/../../../../arm-eabi/lib/thumb\libsysbase.a(iosupport.o)
                              c:/devkitPro/libnds/lib\libfat.a(libfat.o) (FindDevice)
c:/devkitpro/devkitarm/bin/../lib/gcc/arm-eabi/4.7.0/../../../../arm-eabi/lib/thumb\libsysbase.a(close.o)
                              c:/devkitpro/devkitarm/bin/../lib/gcc/arm-eabi/4.7.0/../../../../arm-eabi/lib/thumb\libg.a(lib_a-stdio.o) (_close_r)
c:/devkitpro/devkitarm/bin/../lib/gcc/arm-eabi/4.7.0/../../../../arm-eabi/lib/thumb\libsysbase.a(fstat.o)
                              c:/devkitpro/devkitarm/bin/../lib/gcc/arm-eabi/4.7.0/../../../../arm-eabi/lib/thumb\libg.a(lib_a-fseek.o) (_fstat_r)
c:/devkitpro/devkitarm/bin/../lib/gcc/arm-eabi/4.7.0/../../../../arm-eabi/lib/thumb\libsysbase.a(isatty.o)
                              c:/devkitpro/devkitarm/bin/../lib/gcc/arm-eabi/4.7.0/../../../../arm-eabi/lib/thumb\libg.a(lib_a-makebuf.o) (_isatty_r)
c:/devkitpro/devkitarm/bin/../lib/gcc/arm-eabi/4.7.0/../../../../arm-eabi/lib/thumb\libsysbase.a(lseek.o)
                              c:/devkitpro/devkitarm/bin/../lib/gcc/arm-eabi/4.7.0/../../../../arm-eabi/lib/thumb\libg.a(lib_a-stdio.o) (_lseek_r)
c:/devkitpro/devkitarm/bin/../lib/gcc/arm-eabi/4.7.0/../../../../arm-eabi/lib/thumb\libsysbase.a(open.o)
                              c:/devkitpro/devkitarm/bin/../lib/gcc/arm-eabi/4.7.0/../../../../arm-eabi/lib/thumb\libg.a(lib_a-fopen.o) (_open_r)
c:/devkitpro/devkitarm/bin/../lib/gcc/arm-eabi/4.7.0/../../../../arm-eabi/lib/thumb\libsysbase.a(read.o)
                              c:/devkitpro/devkitarm/bin/../lib/gcc/arm-eabi/4.7.0/../../../../arm-eabi/lib/thumb\libg.a(lib_a-stdio.o) (_read_r)
c:/devkitpro/devkitarm/bin/../lib/gcc/arm-eabi/4.7.0/../../../../arm-eabi/lib/thumb\libsysbase.a(sbrk.o)
                              c:/devkitpro/devkitarm/bin/../lib/gcc/arm-eabi/4.7.0/../../../../arm-eabi/lib/thumb\libg.a(lib_a-freer.o) (_sbrk_r)
c:/devkitpro/devkitarm/bin/../lib/gcc/arm-eabi/4.7.0/../../../../arm-eabi/lib/thumb\libsysbase.a(times.o)
                              c:/devkitpro/devkitarm/bin/../lib/gcc/arm-eabi/4.7.0/../../../../arm-eabi/lib/thumb\libg.a(lib_a-time.o) (_gettimeofday_r)
c:/devkitpro/devkitarm/bin/../lib/gcc/arm-eabi/4.7.0/../../../../arm-eabi/lib/thumb\libsysbase.a(write.o)
                              c:/devkitpro/devkitarm/bin/../lib/gcc/arm-eabi/4.7.0/../../../../arm-eabi/lib/thumb\libg.a(lib_a-stdio.o) (_write_r)
c:/devkitpro/devkitarm/bin/../lib/gcc/arm-eabi/4.7.0/../../../../arm-eabi/lib/thumb\libsysbase.a(malloc_vars.o)
                              c:/devkitpro/devkitarm/bin/../lib/gcc/arm-eabi/4.7.0/../../../../arm-eabi/lib/thumb/ds_arm9_crt0.o (fake_heap_start)
c:/devkitpro/devkitarm/bin/../lib/gcc/arm-eabi/4.7.0/../../../../arm-eabi/lib/thumb\libsysbase.a(chdir.o)
                              c:/devkitPro/libnds/lib\libfat.a(libfat.o) (chdir)
c:/devkitpro/devkitarm/bin/../lib/gcc/arm-eabi/4.7.0/../../../../arm-eabi/lib/thumb\libsysbase.a(build_argv.o)
                              c:/devkitpro/devkitarm/bin/../lib/gcc/arm-eabi/4.7.0/../../../../arm-eabi/lib/thumb/ds_arm9_crt0.o (build_argv)
c:/devkitpro/devkitarm/bin/../lib/gcc/arm-eabi/4.7.0/../../../../arm-eabi/lib/thumb\libsysbase.a(syscall_support.o)
                              c:/devkitPro/libnds/lib\libnds9.a(initSystem.o) (__syscalls)
c:/devkitpro/devkitarm/bin/../lib/gcc/arm-eabi/4.7.0/../../../../arm-eabi/lib/thumb\libsysbase.a(handle_manager.o)
                              c:/devkitpro/devkitarm/bin/../lib/gcc/arm-eabi/4.7.0/../../../../arm-eabi/lib/thumb\libsysbase.a(close.o) (__release_handle)
c:/devkitpro/devkitarm/bin/../lib/gcc/arm-eabi/4.7.0/thumb\libgcc.a(_arm_addsubdf3.o)
                              c:/devkitpro/devkitarm/bin/../lib/gcc/arm-eabi/4.7.0/../../../../arm-eabi/lib/thumb\libg.a(lib_a-dtoa.o) (__aeabi_dsub)
c:/devkitpro/devkitarm/bin/../lib/gcc/arm-eabi/4.7.0/thumb\libgcc.a(_arm_muldivdf3.o)
                              c:/devkitpro/devkitarm/bin/../lib/gcc/arm-eabi/4.7.0/../../../../arm-eabi/lib/thumb\libg.a(lib_a-dtoa.o) (__aeabi_dmul)
c:/devkitpro/devkitarm/bin/../lib/gcc/arm-eabi/4.7.0/thumb\libgcc.a(_arm_cmpdf2.o)
                              c:/devkitpro/devkitarm/bin/../lib/gcc/arm-eabi/4.7.0/../../../../arm-eabi/lib/thumb\libg.a(lib_a-svfprintf.o) (__aeabi_dcmpeq)
c:/devkitpro/devkitarm/bin/../lib/gcc/arm-eabi/4.7.0/thumb\libgcc.a(_arm_fixdfsi.o)
                              c:/devkitpro/devkitarm/bin/../lib/gcc/arm-eabi/4.7.0/../../../../arm-eabi/lib/thumb\libg.a(lib_a-dtoa.o) (__aeabi_d2iz)
c:/devkitpro/devkitarm/bin/../lib/gcc/arm-eabi/4.7.0/thumb\libgcc.a(_aeabi_uldivmod.o)
                              c:/devkitpro/devkitarm/bin/../lib/gcc/arm-eabi/4.7.0/../../../../arm-eabi/lib/thumb\libg.a(lib_a-svfprintf.o) (__aeabi_uldivmod)
c:/devkitpro/devkitarm/bin/../lib/gcc/arm-eabi/4.7.0/thumb\libgcc.a(bpabi.o)
                              c:/devkitpro/devkitarm/bin/../lib/gcc/arm-eabi/4.7.0/thumb\libgcc.a(_aeabi_uldivmod.o) (__gnu_uldivmod_helper)
c:/devkitpro/devkitarm/bin/../lib/gcc/arm-eabi/4.7.0/thumb\libgcc.a(_divdi3.o)
                              c:/devkitpro/devkitarm/bin/../lib/gcc/arm-eabi/4.7.0/thumb\libgcc.a(bpabi.o) (__divdi3)
c:/devkitpro/devkitarm/bin/../lib/gcc/arm-eabi/4.7.0/thumb\libgcc.a(_udivdi3.o)
                              c:/devkitpro/devkitarm/bin/../lib/gcc/arm-eabi/4.7.0/thumb\libgcc.a(bpabi.o) (__udivdi3)
c:/devkitpro/devkitarm/bin/../lib/gcc/arm-eabi/4.7.0/thumb\libgcc.a(unwind-arm.o)
                              c:/devkitpro/devkitarm/bin/../lib/gcc/arm-eabi/4.7.0/thumb\libgcc.a(_divdi3.o) (__aeabi_unwind_cpp_pr1)
c:/devkitpro/devkitarm/bin/../lib/gcc/arm-eabi/4.7.0/thumb\libgcc.a(libunwind.o)
                              c:/devkitpro/devkitarm/bin/../lib/gcc/arm-eabi/4.7.0/thumb\libgcc.a(unwind-arm.o) (restore_core_regs)
c:/devkitpro/devkitarm/bin/../lib/gcc/arm-eabi/4.7.0/thumb\libgcc.a(pr-support.o)
                              c:/devkitpro/devkitarm/bin/../lib/gcc/arm-eabi/4.7.0/thumb\libgcc.a(unwind-arm.o) (__gnu_unwind_execute)
c:/devkitpro/devkitarm/bin/../lib/gcc/arm-eabi/4.7.0/thumb\libgcc.a(_clzsi2.o)
                              c:/devkitpro/devkitarm/bin/../lib/gcc/arm-eabi/4.7.0/thumb\libgcc.a(_divdi3.o) (__clzsi2)
c:/devkitpro/devkitarm/bin/../lib/gcc/arm-eabi/4.7.0/../../../../arm-eabi/lib/thumb\libg.a(lib_a-abort.o)
                              c:/devkitpro/devkitarm/bin/../lib/gcc/arm-eabi/4.7.0/thumb\libgcc.a(unwind-arm.o) (abort)
c:/devkitpro/devkitarm/bin/../lib/gcc/arm-eabi/4.7.0/../../../../arm-eabi/lib/thumb\libg.a(lib_a-errno.o)
                              c:/devkitpro/devkitarm/bin/../lib/gcc/arm-eabi/4.7.0/../../../../arm-eabi/lib/thumb\libsysbase.a(times.o) (__errno)
c:/devkitpro/devkitarm/bin/../lib/gcc/arm-eabi/4.7.0/../../../../arm-eabi/lib/thumb\libg.a(lib_a-signal.o)
                              c:/devkitpro/devkitarm/bin/../lib/gcc/arm-eabi/4.7.0/../../../../arm-eabi/lib/thumb\libg.a(lib_a-abort.o) (raise)
c:/devkitpro/devkitarm/bin/../lib/gcc/arm-eabi/4.7.0/../../../../arm-eabi/lib/thumb\libsysbase.a(getpid.o)
                              c:/devkitpro/devkitarm/bin/../lib/gcc/arm-eabi/4.7.0/../../../../arm-eabi/lib/thumb\libg.a(lib_a-signal.o) (_getpid_r)
c:/devkitpro/devkitarm/bin/../lib/gcc/arm-eabi/4.7.0/../../../../arm-eabi/lib/thumb\libsysbase.a(kill.o)
                              c:/devkitpro/devkitarm/bin/../lib/gcc/arm-eabi/4.7.0/../../../../arm-eabi/lib/thumb\libg.a(lib_a-signal.o) (_kill_r)
c:/devkitpro/devkitarm/bin/../lib/gcc/arm-eabi/4.7.0/../../../../arm-eabi/lib/thumb\libsysbase.a(_exit.o)
                              c:/devkitpro/devkitarm/bin/../lib/gcc/arm-eabi/4.7.0/../../../../arm-eabi/lib/thumb\libg.a(lib_a-abort.o) (_exit)

Allocating common symbols
Common symbol       size              file

currentCopy         0x5c              c:/devkitPro/libnds/lib\libnds9.a(console.o)
fifo_datamsg_data   0x40              c:/devkitPro/libnds/lib\libnds9.a(fifosystem.o)
__dsimode           0x1               c:/devkitPro/libnds/lib\libnds9.a(initSystem.o)
bgState             0x140             c:/devkitPro/libnds/lib\libnds9.a(background.o)
fifo_buffer         0x800             c:/devkitPro/libnds/lib\libnds9.a(fifosystem.o)
bgIsTextLut         0x8               c:/devkitPro/libnds/lib\libnds9.a(background.o)
fifo_value32_func   0x40              c:/devkitPro/libnds/lib\libnds9.a(fifosystem.o)
fifo_address_func   0x40              c:/devkitPro/libnds/lib\libnds9.a(fifosystem.o)
fifo_value32_data   0x40              c:/devkitPro/libnds/lib\libnds9.a(fifosystem.o)
fifo_value32_queue  0x40              c:/devkitPro/libnds/lib\libnds9.a(fifosystem.o)
fifo_data_queue     0x40              c:/devkitPro/libnds/lib\libnds9.a(fifosystem.o)
punixTime           0x4               c:/devkitpro/devkitarm/bin/../lib/gcc/arm-eabi/4.7.0/../../../../arm-eabi/lib/thumb\libsysbase.a(times.o)
fifo_address_data   0x40              c:/devkitPro/libnds/lib\libnds9.a(fifosystem.o)
fifo_datamsg_func   0x40              c:/devkitPro/libnds/lib\libnds9.a(fifosystem.o)
fifo_address_queue  0x40              c:/devkitPro/libnds/lib\libnds9.a(fifosystem.o)

Memory Configuration

Name             Origin             Length             Attributes
rom              0x08000000         0x02000000
ewram            0x02000000         0x003ff000
dtcm             0x0b000000         0x00004000
vectors          0x01000000         0x00000100
itcm             0x01000100         0x00007f00
*default*        0x00000000         0xffffffff

Linker script and memory map

                0x01000000                __vectors_start = ORIGIN (vectors)
                0x01000100                __itcm_start = ORIGIN (itcm)
                0x023ff000                __ewram_end = (ORIGIN (ewram) + 0x3ff000)
                0x023ff000                __eheap_end = (ORIGIN (ewram) + 0x3ff000)
                0x0b000000                __dtcm_start = ORIGIN (dtcm)
                0x0b004000                __dtcm_top = (ORIGIN (dtcm) + 0x4000)
                0x0b003ff8                __irq_flags = (__dtcm_top - 0x8)
                0x0b003ffc                __irq_vector = (__dtcm_top - 0x4)
                0x0b003f00                __sp_svc = (__dtcm_top - 0x100)
                0x0b003e00                __sp_irq = (__sp_svc - 0x100)
                0x0b003d00                __sp_usr = (__sp_irq - 0x100)

.init           0x02000000      0x23c
                0x02000000                __text_start = .
 *(.init)
 .init          0x02000000      0x230 c:/devkitpro/devkitarm/bin/../lib/gcc/arm-eabi/4.7.0/../../../../arm-eabi/lib/thumb/ds_arm9_crt0.o
                0x02000000                _start
 .init          0x02000230        0x4 c:/devkitpro/devkitarm/bin/../lib/gcc/arm-eabi/4.7.0/thumb/crti.o
                0x02000230                _init
 .init          0x02000234        0x8 c:/devkitpro/devkitarm/bin/../lib/gcc/arm-eabi/4.7.0/thumb/crtn.o
                0x0200023c                . = ALIGN (0x4)

.plt
 *(.plt)

.text           0x02000240    0x1e1f8
 *(EXCLUDE_FILE(*.itcm*) .text)
 .text          0x02000240        0x0 c:/devkitpro/devkitarm/bin/../lib/gcc/arm-eabi/4.7.0/../../../../arm-eabi/lib/thumb/ds_arm9_crt0.o
 .text          0x02000240        0x0 c:/devkitpro/devkitarm/bin/../lib/gcc/arm-eabi/4.7.0/thumb/crti.o
 .text          0x02000240       0xd0 c:/devkitpro/devkitarm/bin/../lib/gcc/arm-eabi/4.7.0/thumb/crtbegin.o
 .text          0x02000310       0x14 main.o
                0x02000310                error
 .text          0x02000324      0x340 c:/devkitPro/libnds/lib\libfat.a(libfat.o)
                0x02000324                fatMount
                0x020003d8                fatMountSimple
                0x020003ec                fatUnmount
                0x02000424                fatInit
                0x0200057c                fatInitDefault
                0x02000588                fatGetVolumeLabel
 .text          0x02000664      0x754 c:/devkitPro/libnds/lib\libfat.a(partition.o)
                0x02000664                FindFirstValidPartition_buf
                0x02000808                FindFirstValidPartition
                0x02000830                _FAT_partition_getPartitionFromPath
                0x02000844                _FAT_partition_createFSinfo
                0x02000904                _FAT_partition_readFSinfo
                0x020009c4                _FAT_partition_constructor_buf
                0x02000c7c                _FAT_partition_constructor
                0x02000cc0                _FAT_partition_writeFSinfo
                0x02000d78                _FAT_partition_destructor
 .text          0x02000db8      0x4d0 c:/devkitPro/libnds/lib\libfat.a(cache.o)
                0x02000eb0                _FAT_cache_constructor
                0x02000f4c                _FAT_cache_readSectors
                0x02000fa8                _FAT_cache_readPartialSector
                0x02000ff4                _FAT_cache_readLittleEndianValue
                0x02001054                _FAT_cache_writePartialSector
                0x020010ac                _FAT_cache_writeLittleEndianValue
                0x020010f4                _FAT_cache_eraseWritePartialSector
                0x0200115c                _FAT_cache_writeSectors
                0x020011c4                _FAT_cache_flush
                0x02001228                _FAT_cache_destructor
                0x0200125c                _FAT_cache_invalidate
 .text          0x02001288     0x13b4 c:/devkitPro/libnds/lib\libfat.a(directory.o)
                0x02001500                _FAT_directory_entryGetCluster
                0x02001528                _FAT_directory_getNextEntry
                0x02001710                _FAT_directory_getFirstEntry
                0x020017c0                _FAT_directory_getRootEntry
                0x0200181c                _FAT_directory_getVolumeLabel
                0x020018cc                _FAT_directory_entryFromPosition
                0x02001a00                _FAT_directory_entryFromPath
                0x02001be4                _FAT_directory_removeEntry
                0x02001cb8                _FAT_directory_addEntry
                0x02002538                _FAT_directory_chdir
                0x02002574                _FAT_directory_entryStat
 .text          0x0200263c        0x8 c:/devkitPro/libnds/lib\libfat.a(disc.o)
 .text          0x02002644      0x904 c:/devkitPro/libnds/lib\libfat.a(fatdir.o)
                0x02002644                _FAT_stat_r
                0x020026d8                _FAT_link_r
                0x020026e4                _FAT_unlink_r
                0x02002858                _FAT_chdir_r
                0x020028c8                _FAT_rename_r
                0x02002a94                _FAT_mkdir_r
                0x02002d0c                _FAT_statvfs_r
                0x02002d98                _FAT_diropen_r
                0x02002e58                _FAT_dirreset_r
                0x02002ea4                _FAT_dirnext_r
                0x02002f28                _FAT_dirclose_r
 .text          0x02002f48     0x131c c:/devkitPro/libnds/lib\libfat.a(fatfile.o)
                0x020031d0                _FAT_findEntry
                0x0200320c                FAT_getAttr
                0x02003234                FAT_setAttr
                0x02003254                _FAT_open_r
                0x0200357c                _FAT_syncToDisc
                0x0200365c                _FAT_close_r
                0x020036c8                _FAT_read_r
                0x02003a30                _FAT_write_r
                0x02003ec8                _FAT_seek_r
                0x02004018                _FAT_fstat_r
                0x020040b4                _FAT_ftruncate_r
                0x02004224                _FAT_fsync_r
 .text          0x02004264      0x4b0 c:/devkitPro/libnds/lib\libfat.a(file_allocation_table.o)
                0x020043b4                _FAT_fat_nextCluster
                0x020044d0                _FAT_fat_linkFreeCluster
                0x02004568                _FAT_fat_linkFreeClusterCleared
                0x020045d8                _FAT_fat_clearLinks
                0x02004634                _FAT_fat_trimChain
                0x020046b8                _FAT_fat_lastCluster
                0x020046ec                _FAT_fat_freeClusterCount
 .text          0x02004714       0xb8 c:/devkitPro/libnds/lib\libfat.a(filetime.o)
                0x02004714                _FAT_filetime_getTimeFromRTC
                0x02004754                _FAT_filetime_getDateFromRTC
                0x02004794                _FAT_filetime_to_time_t
 .text          0x020047cc       0x10 c:/devkitPro/libnds/lib\libfat.a(lock.o)
                0x020047cc                _FAT_lock_init
                0x020047d0                _FAT_lock_deinit
                0x020047d4                _FAT_lock
                0x020047d8                _FAT_unlock
 .text          0x020047dc      0xa4c c:/devkitPro/libnds/lib\libnds9.a(console.o)
                0x0200487c                nocash_write
                0x0200488c                consoleGetDefault
                0x02004898                consoleSelect
                0x020048a8                consoleDebugInit
                0x020048f8                consolePrintChar
                0x02004ac4                consoleLoadFont
                0x02004d4c                consoleSetFont
                0x02004d6c                consoleInit
                0x02004ed4                consoleDemoInit
                0x02004f18                con_write
                0x020051f4                consoleClear
                0x02005204                consoleSetWindow
 .text          0x02005228       0xf4 c:/devkitPro/libnds/lib\libnds9.a(keys.o)
                0x02005228                scanKeys
                0x02005294                keysHeld
                0x020052a0                keysDown
                0x020052b0                keysDownRepeat
                0x020052c0                keysSetRepeat
                0x020052d8                keysUp
                0x020052e8                keysCurrent
 .text          0x0200531c      0x238 c:/devkitPro/libnds/lib\libnds9.a(dldi.o)
                0x0200531c                dldiGetInternal
                0x02005354                dldiIsValid
                0x0200538c                dldiFixDriverAddresses
                0x02005464                dldiLoadFromFile
                0x02005548                dldiFree
 .text          0x02005554      0x148 c:/devkitPro/libnds/lib\libnds9.a(dsi_sd.o)
                0x02005554                sdio_ClearStatus
                0x02005564                sdio_Shutdown
                0x02005574                sdio_WriteSectors
                0x020055c8                sdio_ReadSectors
                0x0200561c                sdio_IsInserted
                0x02005650                sdio_Startup
 .text          0x0200569c      0x140 c:/devkitPro/libnds/lib\libnds9.a(initSystem.o)
                0x0200569c                initSystem
 .text          0x020057dc      0xc58 c:/devkitPro/libnds/lib\libnds9.a(fifosystem.o)
                0x02005a30                fifoSendAddress
                0x02005a5c                fifoSendValue32
                0x02005a9c                fifoSendDatamsg
                0x02005b0c                fifoGetAddress
                0x02005b84                fifoSetAddressHandler
                0x02005bf8                fifoGetValue32
                0x02005c6c                fifoSetValue32Handler
                0x02005ce0                fifoGetDatamsg
                0x02006164                fifoSetDatamsgHandler
                0x020061fc                fifoCheckAddress
                0x02006220                fifoCheckDatamsg
                0x02006244                fifoCheckValue32
                0x02006268                fifoInit
 .text          0x02006434      0x1ec c:/devkitPro/libnds/lib\libnds9.a(interrupts.o)
                0x02006434                irqDummy
                0x02006438                irqSet
                0x020064a4                irqInit
                0x020064f0                irqInitHandler
                0x02006520                irqEnable
                0x02006584                irqDisable
                0x020065e8                irqClear
 .text          0x02006620       0x40 c:/devkitPro/libnds/lib\libnds9.a(libnds_exit.o)
                0x02006620                systemErrorExit
                0x02006624                __libnds_exit
 .text          0x02006660       0x70 c:/devkitPro/libnds/lib\libnds9.a(dcache.o)
                0x02006660                DC_FlushAll
                0x0200668c                DC_FlushRange
                0x020066a8                DC_InvalidateAll
                0x020066b4                DC_InvalidateRange
 *fill*         0x020066d0       0x30 ff
 .text          0x02006700     0x8000 c:/devkitPro/libnds/lib\libnds9.a(dldi_stub.o)
                0x02006700                _io_dldi_stub
 .text          0x0200e700      0x1b4 c:/devkitPro/libnds/lib\libnds9.a(mpu_setup.o)
                0x0200e700                __libnds_mpu_setup
                0x0200e840                memCached
                0x0200e858                memUncached
 *fill*         0x0200e8b4        0xc ff
 .text          0x0200e8c0       0x70 c:/devkitPro/libnds/lib\libnds9.a(biosCalls.o)
                0x0200e8c0                swiDelay
                0x0200e8c4                swiIntrWait
                0x0200e8c8                swiWaitForVBlank
                0x0200e8cc                swiSleep
                0x0200e8d0                swiChangeSoundBias
                0x0200e8d4                swiDivide
                0x0200e8d8                swiRemainder
                0x0200e8de                swiDivMod
                0x0200e8ea                swiCopy
                0x0200e8ee                swiFastCopy
                0x0200e8f2                swiSqrt
                0x0200e8f6                swiCRC16
                0x0200e8fa                swiIsDebugger
                0x0200e8fe                swiUnpackBits
                0x0200e902                swiDecompressLZSSWram
                0x0200e906                swiDecompressLZSSVramNTR
                0x0200e90a                swiDecompressLZSSVramTWL
                0x0200e90e                swiDecompressHuffman
                0x0200e912                swiDecompressRLEWram
                0x0200e916                swiDecompressRLEVram
                0x0200e91a                swiWaitForIRQ
                0x0200e91e                swiDecodeDelta8
                0x0200e922                swiDecodeDelta16
                0x0200e926                swiSetHaltCR
 .text          0x0200e930       0xa4 c:/devkitPro/libnds/lib\libnds9.a(debugprint.o)
                0x0200e930                nocashWrite
                0x0200e932                nocashMessage
 .text          0x0200e9d4        0x0 c:/devkitPro/libnds/lib\libnds9.a(interruptDispatcher.o)
 *fill*         0x0200e9d4        0xc ff
 .text          0x0200e9e0       0x30 c:/devkitPro/libnds/lib\libnds9.a(swiSoftReset.o)
                0x0200e9e0                swiSoftReset
 .text          0x0200ea10        0x0 c:/devkitPro/libnds/lib\libnds9.a(default_font.bin.o)
 .text          0x0200ea10      0x2e8 c:/devkitPro/libnds/lib\libnds9.a(background.o)
                0x0200ea10                bgIsText
                0x0200ea1c                checkIfText
                0x0200ea74                bgUpdate
                0x0200eb68                bgInit_call
                0x0200ec2c                bgInitSub_call
 .text          0x0200ecf8      0x128 c:/devkitPro/libnds/lib\libnds9.a(system.o)
                0x0200ecf8                setSDcallback
                0x0200ed04                systemMsgHandler
                0x0200ed48                systemSleep
                0x0200ed60                systemValueHandler
                0x0200ed9c                powerOn
                0x0200edc8                powerOff
                0x0200edf0                ledBlink
                0x0200ee00                getBatteryLevel
 .text          0x0200ee20      0x244 c:/devkitPro/libnds/lib\libnds9.a(trig.o)
                0x0200ee20                asinComp
                0x0200ee48                sinLutLookup
                0x0200ee84                sinLerp
                0x0200eebc                cosLerp
                0x0200eed0                tanLutLookup
                0x0200ef08                tanLerp
                0x0200efac                asinLerp
                0x0200f028                acosLerp
                0x0200f03c                atanComp
 .text          0x0200f064      0x1f8 c:/devkitPro/libnds/lib\libnds9.a(video.o)
                0x0200f064                vramSetPrimaryBanks
                0x0200f0a8                vramSetMainBanks
                0x0200f0ec                vramSetBanks_EFG
                0x0200f124                vramRestorePrimaryBanks
                0x0200f130                vramRestoreMainBanks
                0x0200f13c                vramRestoreBanks_EFG
                0x0200f148                setBrightness
                0x0200f188                vramDefault
 .text          0x0200f25c      0x11c c:/devkitpro/devkitarm/bin/../lib/gcc/arm-eabi/4.7.0/thumb\libgcc.a(_udivsi3.o)
                0x0200f25c                __aeabi_uidiv
                0x0200f25c                __udivsi3
                0x0200f358                __aeabi_uidivmod
 .text          0x0200f378      0x150 c:/devkitpro/devkitarm/bin/../lib/gcc/arm-eabi/4.7.0/thumb\libgcc.a(_divsi3.o)
                0x0200f378                __divsi3
                0x0200f378                __aeabi_idiv
                0x0200f4a8                __aeabi_idivmod
 .text          0x0200f4c8        0x4 c:/devkitpro/devkitarm/bin/../lib/gcc/arm-eabi/4.7.0/thumb\libgcc.a(_dvmd_tls.o)
                0x0200f4c8                __aeabi_idiv0
                0x0200f4c8                __aeabi_ldiv0
 .text          0x0200f4cc       0x4c c:/devkitpro/devkitarm/bin/../lib/gcc/arm-eabi/4.7.0/thumb\libgcc.a(_muldi3.o)
                0x0200f4cc                __muldi3
                0x0200f4cc                __aeabi_lmul
 .text          0x0200f518       0x64 c:/devkitpro/devkitarm/bin/../lib/gcc/arm-eabi/4.7.0/../../../../arm-eabi/lib/thumb\libg.a(lib_a-bsearch.o)
                0x0200f518                bsearch
 .text          0x0200f57c       0x10 c:/devkitpro/devkitarm/bin/../lib/gcc/arm-eabi/4.7.0/../../../../arm-eabi/lib/thumb\libg.a(lib_a-ctype_.o)
                0x0200f57c                __set_ctype
 .text          0x0200f58c       0xb0 c:/devkitpro/devkitarm/bin/../lib/gcc/arm-eabi/4.7.0/../../../../arm-eabi/lib/thumb\libg.a(lib_a-fclose.o)
                0x0200f58c                _fclose_r
                0x0200f620                fclose
 .text          0x0200f63c      0x1b8 c:/devkitpro/devkitarm/bin/../lib/gcc/arm-eabi/4.7.0/../../../../arm-eabi/lib/thumb\libg.a(lib_a-fflush.o)
                0x0200f63c                __sflush_r
                0x0200f794                _fflush_r
                0x0200f7c4                fflush
 .text          0x0200f7f4      0x1d8 c:/devkitpro/devkitarm/bin/../lib/gcc/arm-eabi/4.7.0/../../../../arm-eabi/lib/thumb\libg.a(lib_a-findfp.o)
                0x0200f7fc                _cleanup_r
                0x0200f85c                __sfmoreglue
                0x0200f88c                _cleanup
                0x0200f8a0                __sinit
                0x0200f8f4                __sfp
                0x0200f984                __sfp_lock_acquire
                0x0200f988                __sfp_lock_release
                0x0200f98c                __sinit_lock_acquire
                0x0200f990                __sinit_lock_release
                0x0200f994                __fp_lock_all
                0x0200f9b0                __fp_unlock_all
 .text          0x0200f9cc       0xa8 c:/devkitpro/devkitarm/bin/../lib/gcc/arm-eabi/4.7.0/../../../../arm-eabi/lib/thumb\libg.a(lib_a-fopen.o)
                0x0200f9cc                _fopen_r
                0x0200fa58                fopen
 .text          0x0200fa74      0x238 c:/devkitpro/devkitarm/bin/../lib/gcc/arm-eabi/4.7.0/../../../../arm-eabi/lib/thumb\libg.a(lib_a-freer.o)
                0x0200fa74                _malloc_trim_r
                0x0200fb18                _free_r
 .text          0x0200fcac      0x328 c:/devkitpro/devkitarm/bin/../lib/gcc/arm-eabi/4.7.0/../../../../arm-eabi/lib/thumb\libg.a(lib_a-fseek.o)
                0x0200fcac                _fseek_r
                0x0200ffb0                fseek
 .text          0x0200ffd4       0xb4 c:/devkitpro/devkitarm/bin/../lib/gcc/arm-eabi/4.7.0/../../../../arm-eabi/lib/thumb\libg.a(lib_a-fwalk.o)
                0x0200ffd4                _fwalk
                0x02010028                _fwalk_reent
 .text          0x02010088       0x9c c:/devkitpro/devkitarm/bin/../lib/gcc/arm-eabi/4.7.0/../../../../arm-eabi/lib/thumb\libg.a(lib_a-fwrite.o)
                0x02010088                _fwrite_r
                0x020100fc                fwrite
 .text          0x02010124        0x0 c:/devkitpro/devkitarm/bin/../lib/gcc/arm-eabi/4.7.0/../../../../arm-eabi/lib/thumb\libg.a(lib_a-impure.o)
 .text          0x02010124       0x54 c:/devkitpro/devkitarm/bin/../lib/gcc/arm-eabi/4.7.0/../../../../arm-eabi/lib/thumb\libg.a(lib_a-init.o)
                0x02010124                __libc_init_array
 .text          0x02010178       0x40 c:/devkitpro/devkitarm/bin/../lib/gcc/arm-eabi/4.7.0/../../../../arm-eabi/lib/thumb\libg.a(lib_a-iprintf.o)
                0x02010178                iprintf
                0x0201019c                _iprintf_r
 .text          0x020101b8       0x10 c:/devkitpro/devkitarm/bin/../lib/gcc/arm-eabi/4.7.0/../../../../arm-eabi/lib/thumb\libg.a(lib_a-lcltime_r.o)
                0x020101b8                localtime_r
 .text          0x020101c8      0x950 c:/devkitpro/devkitarm/bin/../lib/gcc/arm-eabi/4.7.0/../../../../arm-eabi/lib/thumb\libg.a(lib_a-locale.o)
                0x020108bc                _setlocale_r
                0x02010ab8                __locale_charset
                0x02010ac0                __locale_mb_cur_max
                0x02010acc                __locale_msgcharset
                0x02010ad8                __locale_cjk_lang
                0x02010ae4                _localeconv_r
                0x02010af0                setlocale
                0x02010b0c                localeconv
 .text          0x02010b18       0xe0 c:/devkitpro/devkitarm/bin/../lib/gcc/arm-eabi/4.7.0/../../../../arm-eabi/lib/thumb\libg.a(lib_a-makebuf.o)
                0x02010b18                __smakebuf_r
 .text          0x02010bf8       0x30 c:/devkitpro/devkitarm/bin/../lib/gcc/arm-eabi/4.7.0/../../../../arm-eabi/lib/thumb\libg.a(lib_a-malloc.o)
                0x02010bf8                malloc
                0x02010c10                free
 .text          0x02010c28      0x51c c:/devkitpro/devkitarm/bin/../lib/gcc/arm-eabi/4.7.0/../../../../arm-eabi/lib/thumb\libg.a(lib_a-mallocr.o)
                0x02010c28                _malloc_r
 .text          0x02011144      0x104 c:/devkitpro/devkitarm/bin/../lib/gcc/arm-eabi/4.7.0/../../../../arm-eabi/lib/thumb\libg.a(lib_a-mbrtowc.o)
                0x02011144                _mbrtowc_r
                0x020111bc                mbrtowc
 .text          0x02011248       0x40 c:/devkitpro/devkitarm/bin/../lib/gcc/arm-eabi/4.7.0/../../../../arm-eabi/lib/thumb\libg.a(lib_a-mbsrtowcs.o)
                0x02011248                _mbsrtowcs_r
                0x02011260                mbsrtowcs
 .text          0x02011288      0x584 c:/devkitpro/devkitarm/bin/../lib/gcc/arm-eabi/4.7.0/../../../../arm-eabi/lib/thumb\libg.a(lib_a-mbtowc_r.o)
                0x02011288                __utf8_mbtowc
                0x020114e8                _mbtowc_r
                0x02011524                __ascii_mbtowc
                0x02011554                __sjis_mbtowc
                0x02011614                __eucjp_mbtowc
                0x020116dc                __jis_mbtowc
 .text          0x0201180c       0x60 c:/devkitpro/devkitarm/bin/../lib/gcc/arm-eabi/4.7.0/../../../../arm-eabi/lib/thumb\libg.a(lib_a-memcmp.o)
                0x0201180c                memcmp
 .text          0x0201186c       0x90 c:/devkitpro/devkitarm/bin/../lib/gcc/arm-eabi/4.7.0/../../../../arm-eabi/lib/thumb\libg.a(lib_a-memcpy-stub.o)
                0x0201186c                memcpy
 .text          0x020118fc       0xb0 c:/devkitpro/devkitarm/bin/../lib/gcc/arm-eabi/4.7.0/../../../../arm-eabi/lib/thumb\libg.a(lib_a-memmove.o)
                0x020118fc                memmove
 .text          0x020119ac       0x98 c:/devkitpro/devkitarm/bin/../lib/gcc/arm-eabi/4.7.0/../../../../arm-eabi/lib/thumb\libg.a(lib_a-memset.o)
                0x020119ac                memset
 .text          0x02011a44      0x508 c:/devkitpro/devkitarm/bin/../lib/gcc/arm-eabi/4.7.0/../../../../arm-eabi/lib/thumb\libg.a(lib_a-mktime.o)
                0x02011c18                mktime
 .text          0x02011f4c      0x498 c:/devkitpro/devkitarm/bin/../lib/gcc/arm-eabi/4.7.0/../../../../arm-eabi/lib/thumb\libg.a(lib_a-mktm_r.o)
                0x02011f4c                __tzcalc_limits
                0x020120e8                _mktm_r
 .text          0x020123e4        0x8 c:/devkitpro/devkitarm/bin/../lib/gcc/arm-eabi/4.7.0/../../../../arm-eabi/lib/thumb\libg.a(lib_a-mlock.o)
                0x020123e4                __malloc_lock
                0x020123e8                __malloc_unlock
 .text          0x020123ec      0x144 c:/devkitpro/devkitarm/bin/../lib/gcc/arm-eabi/4.7.0/../../../../arm-eabi/lib/thumb\libg.a(lib_a-refill.o)
                0x0201240c                __srefill_r
 .text          0x02012530      0x120 c:/devkitpro/devkitarm/bin/../lib/gcc/arm-eabi/4.7.0/../../../../arm-eabi/lib/thumb\libg.a(lib_a-setvbuf.o)
                0x02012530                setvbuf
 .text          0x02012650       0xa0 c:/devkitpro/devkitarm/bin/../lib/gcc/arm-eabi/4.7.0/../../../../arm-eabi/lib/thumb\libg.a(lib_a-siscanf.o)
                0x02012650                siscanf
                0x020126a0                _siscanf_r
 .text          0x020126f0       0x84 c:/devkitpro/devkitarm/bin/../lib/gcc/arm-eabi/4.7.0/../../../../arm-eabi/lib/thumb\libg.a(lib_a-sprintf.o)
                0x020126f0                _sprintf_r
                0x02012730                sprintf
 .text          0x02012774       0xac c:/devkitpro/devkitarm/bin/../lib/gcc/arm-eabi/4.7.0/../../../../arm-eabi/lib/thumb\libg.a(lib_a-stdio.o)
                0x02012774                __sread
                0x020127a0                __seofread
                0x020127a4                __swrite
                0x020127e0                __sseek
                0x02012810                __sclose
 .text          0x02012820       0x50 c:/devkitpro/devkitarm/bin/../lib/gcc/arm-eabi/4.7.0/../../../../arm-eabi/lib/thumb\libg.a(lib_a-strcasecmp.o)
                0x02012820                strcasecmp
 .text          0x02012870       0x50 c:/devkitpro/devkitarm/bin/../lib/gcc/arm-eabi/4.7.0/../../../../arm-eabi/lib/thumb\libg.a(lib_a-strcat.o)
                0x02012870                strcat
 .text          0x020128c0       0xd4 c:/devkitpro/devkitarm/bin/../lib/gcc/arm-eabi/4.7.0/../../../../arm-eabi/lib/thumb\libg.a(lib_a-strchr.o)
                0x020128c0                strchr
 .text          0x02012994       0x14 c:/devkitpro/devkitarm/bin/../lib/gcc/arm-eabi/4.7.0/../../../../arm-eabi/lib/thumb\libg.a(lib_a-strcmp.o)
                0x02012994                strcmp
 .text          0x020129a8       0x10 c:/devkitpro/devkitarm/bin/../lib/gcc/arm-eabi/4.7.0/../../../../arm-eabi/lib/thumb\libg.a(lib_a-strcpy.o)
                0x020129a8                strcpy
 .text          0x020129b8       0x48 c:/devkitpro/devkitarm/bin/../lib/gcc/arm-eabi/4.7.0/../../../../arm-eabi/lib/thumb\libg.a(lib_a-strlcpy.o)
                0x020129b8                strlcpy
 .text          0x02012a00       0x10 c:/devkitpro/devkitarm/bin/../lib/gcc/arm-eabi/4.7.0/../../../../arm-eabi/lib/thumb\libg.a(lib_a-strlen.o)
                0x02012a00                strlen
 .text          0x02012a10       0x60 c:/devkitpro/devkitarm/bin/../lib/gcc/arm-eabi/4.7.0/../../../../arm-eabi/lib/thumb\libg.a(lib_a-strncasecmp.o)
                0x02012a10                strncasecmp
 .text          0x02012a70       0xbc c:/devkitpro/devkitarm/bin/../lib/gcc/arm-eabi/4.7.0/../../../../arm-eabi/lib/thumb\libg.a(lib_a-strncmp.o)
                0x02012a70                strncmp
 .text          0x02012b2c       0x60 c:/devkitpro/devkitarm/bin/../lib/gcc/arm-eabi/4.7.0/../../../../arm-eabi/lib/thumb\libg.a(lib_a-strncpy.o)
                0x02012b2c                strncpy
 .text          0x02012b8c       0x34 c:/devkitpro/devkitarm/bin/../lib/gcc/arm-eabi/4.7.0/../../../../arm-eabi/lib/thumb\libg.a(lib_a-strnlen.o)
                0x02012b8c                strnlen
 .text          0x02012bc0       0x50 c:/devkitpro/devkitarm/bin/../lib/gcc/arm-eabi/4.7.0/../../../../arm-eabi/lib/thumb\libg.a(lib_a-strpbrk.o)
                0x02012bc0                strpbrk
 .text          0x02012c10       0x2c c:/devkitpro/devkitarm/bin/../lib/gcc/arm-eabi/4.7.0/../../../../arm-eabi/lib/thumb\libg.a(lib_a-strrchr.o)
                0x02012c10                strrchr
 .text          0x02012c3c      0x190 c:/devkitpro/devkitarm/bin/../lib/gcc/arm-eabi/4.7.0/../../../../arm-eabi/lib/thumb\libg.a(lib_a-strtol.o)
                0x02012c3c                _strtol_r
                0x02012dac                strtol
 .text          0x02012dcc      0xa98 c:/devkitpro/devkitarm/bin/../lib/gcc/arm-eabi/4.7.0/../../../../arm-eabi/lib/thumb\libg.a(lib_a-svfiscanf.o)
                0x02012dcc                _sungetc_r
                0x02012e54                __ssrefill_r
                0x02012e98                _sfread_r
                0x02012f24                __ssvfiscanf_r
 *fill*         0x02013864        0x4 ff
 .text          0x02013868     0x1728 c:/devkitpro/devkitarm/bin/../lib/gcc/arm-eabi/4.7.0/../../../../arm-eabi/lib/thumb\libg.a(lib_a-svfprintf.o)
                0x02013868                _svfprintf_r
 .text          0x02014f90       0x18 c:/devkitpro/devkitarm/bin/../lib/gcc/arm-eabi/4.7.0/../../../../arm-eabi/lib/thumb\libg.a(lib_a-sysclose.o)
                0x02014f90                close
 .text          0x02014fa8       0x20 c:/devkitpro/devkitarm/bin/../lib/gcc/arm-eabi/4.7.0/../../../../arm-eabi/lib/thumb\libg.a(lib_a-syslseek.o)
                0x02014fa8                lseek
 .text          0x02014fc8       0x24 c:/devkitpro/devkitarm/bin/../lib/gcc/arm-eabi/4.7.0/../../../../arm-eabi/lib/thumb\libg.a(lib_a-sysopen.o)
                0x02014fc8                open
 .text          0x02014fec       0x20 c:/devkitpro/devkitarm/bin/../lib/gcc/arm-eabi/4.7.0/../../../../arm-eabi/lib/thumb\libg.a(lib_a-sysread.o)
                0x02014fec                read
 .text          0x0201500c       0x30 c:/devkitpro/devkitarm/bin/../lib/gcc/arm-eabi/4.7.0/../../../../arm-eabi/lib/thumb\libg.a(lib_a-time.o)
                0x0201500c                time
 .text          0x0201503c      0x730 c:/devkitpro/devkitarm/bin/../lib/gcc/arm-eabi/4.7.0/../../../../arm-eabi/lib/thumb\libg.a(lib_a-towlower.o)
                0x0201503c                towlower
 .text          0x0201576c      0x9dc c:/devkitpro/devkitarm/bin/../lib/gcc/arm-eabi/4.7.0/../../../../arm-eabi/lib/thumb\libg.a(lib_a-towupper.o)
                0x0201576c                towupper
 .text          0x02016148        0x8 c:/devkitpro/devkitarm/bin/../lib/gcc/arm-eabi/4.7.0/../../../../arm-eabi/lib/thumb\libg.a(lib_a-tzlock.o)
                0x02016148                __tz_lock
                0x0201614c                __tz_unlock
 .text          0x02016150        0x0 c:/devkitpro/devkitarm/bin/../lib/gcc/arm-eabi/4.7.0/../../../../arm-eabi/lib/thumb\libg.a(lib_a-tzvars.o)
 .text          0x02016150      0x188 c:/devkitpro/devkitarm/bin/../lib/gcc/arm-eabi/4.7.0/../../../../arm-eabi/lib/thumb\libg.a(lib_a-ungetc.o)
                0x02016150                __submore
                0x020161d8                _ungetc_r
                0x020162bc                ungetc
 .text          0x020162d8      0xed4 c:/devkitpro/devkitarm/bin/../lib/gcc/arm-eabi/4.7.0/../../../../arm-eabi/lib/thumb\libg.a(lib_a-vfiprintf.o)
                0x020162d8                __sprint_r
                0x0201635c                _vfiprintf_r
                0x02017188                vfiprintf
 .text          0x020171ac       0xe8 c:/devkitpro/devkitarm/bin/../lib/gcc/arm-eabi/4.7.0/../../../../arm-eabi/lib/thumb\libg.a(lib_a-wcrtomb.o)
                0x020171ac                _wcrtomb_r
                0x02017214                wcrtomb
 .text          0x02017294       0x40 c:/devkitpro/devkitarm/bin/../lib/gcc/arm-eabi/4.7.0/../../../../arm-eabi/lib/thumb\libg.a(lib_a-wcsrtombs.o)
                0x02017294                _wcsrtombs_r
                0x020172ac                wcsrtombs
 .text          0x020172d4       0x54 c:/devkitpro/devkitarm/bin/../lib/gcc/arm-eabi/4.7.0/../../../../arm-eabi/lib/thumb\libg.a(lib_a-wctob.o)
                0x020172d4                wctob
 .text          0x02017328      0x2a4 c:/devkitpro/devkitarm/bin/../lib/gcc/arm-eabi/4.7.0/../../../../arm-eabi/lib/thumb\libg.a(lib_a-wctomb_r.o)
                0x02017328                __utf8_wctomb
                0x020173dc                _wctomb_r
                0x02017414                __ascii_wctomb
                0x02017434                __sjis_wctomb
                0x020174b0                __eucjp_wctomb
                0x0201754c                __jis_wctomb
 .text          0x020175cc       0xd0 c:/devkitpro/devkitarm/bin/../lib/gcc/arm-eabi/4.7.0/../../../../arm-eabi/lib/thumb\libg.a(lib_a-wsetup.o)
                0x020175cc                __swsetup_r
 .text          0x0201769c       0x40 c:/devkitpro/devkitarm/bin/../lib/gcc/arm-eabi/4.7.0/../../../../arm-eabi/lib/thumb\libg.a(lib_a-div.o)
                0x0201769c                div
 *fill*         0x020176dc        0x4 ff
 .text          0x020176e0     0x10a8 c:/devkitpro/devkitarm/bin/../lib/gcc/arm-eabi/4.7.0/../../../../arm-eabi/lib/thumb\libg.a(lib_a-dtoa.o)
                0x02017840                _dtoa_r
 .text          0x02018788       0x70 c:/devkitpro/devkitarm/bin/../lib/gcc/arm-eabi/4.7.0/../../../../arm-eabi/lib/thumb\libg.a(lib_a-flags.o)
                0x02018788                __sflags
 .text          0x020187f8      0x104 c:/devkitpro/devkitarm/bin/../lib/gcc/arm-eabi/4.7.0/../../../../arm-eabi/lib/thumb\libg.a(lib_a-fputwc.o)
                0x020187f8                _fputwc_r
                0x020188d0                fputwc
 .text          0x020188fc      0x2fc c:/devkitpro/devkitarm/bin/../lib/gcc/arm-eabi/4.7.0/../../../../arm-eabi/lib/thumb\libg.a(lib_a-fvwrite.o)
                0x020188fc                __sfvwrite_r
 .text          0x02018bf8       0xa8 c:/devkitpro/devkitarm/bin/../lib/gcc/arm-eabi/4.7.0/../../../../arm-eabi/lib/thumb\libg.a(lib_a-getenv_r.o)
                0x02018bf8                _findenv_r
                0x02018c90                _getenv_r
 .text          0x02018ca0        0x8 c:/devkitpro/devkitarm/bin/../lib/gcc/arm-eabi/4.7.0/../../../../arm-eabi/lib/thumb\libg.a(lib_a-gettzinfo.o)
                0x02018ca0                __gettzinfo
 .text          0x02018ca8       0x78 c:/devkitpro/devkitarm/bin/../lib/gcc/arm-eabi/4.7.0/../../../../arm-eabi/lib/thumb\libg.a(lib_a-iswspace.o)
                0x02018ca8                iswspace
 .text          0x02018d20      0x1f0 c:/devkitpro/devkitarm/bin/../lib/gcc/arm-eabi/4.7.0/../../../../arm-eabi/lib/thumb\libg.a(lib_a-jp2uc.o)
                0x02018eac                _jp2uc
 .text          0x02018f10       0xe8 c:/devkitpro/devkitarm/bin/../lib/gcc/arm-eabi/4.7.0/../../../../arm-eabi/lib/thumb\libg.a(lib_a-mbsnrtowcs.o)
                0x02018f10                _mbsnrtowcs_r
                0x02018fcc                mbsnrtowcs
 .text          0x02018ff8       0x98 c:/devkitpro/devkitarm/bin/../lib/gcc/arm-eabi/4.7.0/../../../../arm-eabi/lib/thumb\libg.a(lib_a-memchr-stub.o)
                0x02018ff8                memchr
 .text          0x02019090      0x9a0 c:/devkitpro/devkitarm/bin/../lib/gcc/arm-eabi/4.7.0/../../../../arm-eabi/lib/thumb\libg.a(lib_a-mprec.o)
                0x02019090                _Balloc
                0x020190e4                _Bfree
                0x020190fc                __multadd
                0x020191a8                __s2b
                0x02019244                __hi0bits
                0x0201927c                __lo0bits
                0x020192dc                __i2b
                0x020192f4                __multiply
                0x02019460                __pow5mult
                0x02019510                __lshift
                0x020195e0                __mcmp
                0x0201961c                __mdiff
                0x0201970c                __ulp
                0x02019754                __b2d
                0x0201980c                __d2b
                0x020198c4                __ratio
                0x02019940                _mprec_log10
                0x02019984                __copybits
                0x020199cc                __any_on
 .text          0x02019a30      0x3e8 c:/devkitpro/devkitarm/bin/../lib/gcc/arm-eabi/4.7.0/../../../../arm-eabi/lib/thumb\libg.a(lib_a-reallocr.o)
                0x02019a30                _realloc_r
 .text          0x02019e18       0x7c c:/devkitpro/devkitarm/bin/../lib/gcc/arm-eabi/4.7.0/../../../../arm-eabi/lib/thumb\libg.a(lib_a-sccl.o)
                0x02019e18                __sccl
 .text          0x02019e94       0x5c c:/devkitpro/devkitarm/bin/../lib/gcc/arm-eabi/4.7.0/../../../../arm-eabi/lib/thumb\libg.a(lib_a-s_fpclassify.o)
                0x02019e94                __fpclassifyd
 .text          0x02019ef0      0x208 c:/devkitpro/devkitarm/bin/../lib/gcc/arm-eabi/4.7.0/../../../../arm-eabi/lib/thumb\libg.a(lib_a-strtoll_r.o)
                0x02019ef0                _strtoll_r
 .text          0x0201a0f8      0x238 c:/devkitpro/devkitarm/bin/../lib/gcc/arm-eabi/4.7.0/../../../../arm-eabi/lib/thumb\libg.a(lib_a-strtoull_r.o)
                0x0201a0f8                _strtoull_r
 .text          0x0201a330      0x198 c:/devkitpro/devkitarm/bin/../lib/gcc/arm-eabi/4.7.0/../../../../arm-eabi/lib/thumb\libg.a(lib_a-strtoul.o)
                0x0201a330                _strtoul_r
                0x0201a4a8                strtoul
 .text          0x0201a4c8      0xeb4 c:/devkitpro/devkitarm/bin/../lib/gcc/arm-eabi/4.7.0/../../../../arm-eabi/lib/thumb\libg.a(lib_a-svfiprintf.o)
                0x0201a4c8                __ssprint_r
                0x0201a5f8                _svfiprintf_r
 .text          0x0201b37c       0xd0 c:/devkitpro/devkitarm/bin/../lib/gcc/arm-eabi/4.7.0/../../../../arm-eabi/lib/thumb\libg.a(lib_a-wbuf.o)
                0x0201b37c                __swbuf_r
                0x0201b430                __swbuf
 .text          0x0201b44c      0x150 c:/devkitpro/devkitarm/bin/../lib/gcc/arm-eabi/4.7.0/../../../../arm-eabi/lib/thumb\libg.a(lib_a-wcsnrtombs.o)
                0x0201b44c                _wcsnrtombs_r
                0x0201b56c                wcsnrtombs
 .text          0x0201b59c       0x64 c:/devkitpro/devkitarm/bin/../lib/gcc/arm-eabi/4.7.0/../../../../arm-eabi/lib/thumb\libg.a(lib_a-callocr.o)
                0x0201b59c                _calloc_r
 .text          0x0201b600        0x0 c:/devkitpro/devkitarm/bin/../lib/gcc/arm-eabi/4.7.0/../../../../arm-eabi/lib/thumb\libg.a(lib_a-environ.o)
 .text          0x0201b600        0x8 c:/devkitpro/devkitarm/bin/../lib/gcc/arm-eabi/4.7.0/../../../../arm-eabi/lib/thumb\libg.a(lib_a-envlock.o)
                0x0201b600                __env_lock
                0x0201b604                __env_unlock
 .text          0x0201b608      0x144 c:/devkitpro/devkitarm/bin/../lib/gcc/arm-eabi/4.7.0/../../../../arm-eabi/lib/thumb\libsysbase.a(iosupport.o)
                0x0201b608                setDefaultDevice
                0x0201b61c                FindDevice
                0x0201b68c                RemoveDevice
                0x0201b6b0                AddDevice
                0x0201b72c                GetDeviceOpTab
 .text          0x0201b74c       0x50 c:/devkitpro/devkitarm/bin/../lib/gcc/arm-eabi/4.7.0/../../../../arm-eabi/lib/thumb\libsysbase.a(close.o)
                0x0201b74c                _close_r
 .text          0x0201b79c       0x50 c:/devkitpro/devkitarm/bin/../lib/gcc/arm-eabi/4.7.0/../../../../arm-eabi/lib/thumb\libsysbase.a(fstat.o)
                0x0201b79c                _fstat_r
 .text          0x0201b7ec        0x4 c:/devkitpro/devkitarm/bin/../lib/gcc/arm-eabi/4.7.0/../../../../arm-eabi/lib/thumb\libsysbase.a(isatty.o)
                0x0201b7ec                _isatty_r
 .text          0x0201b7f0       0x50 c:/devkitpro/devkitarm/bin/../lib/gcc/arm-eabi/4.7.0/../../../../arm-eabi/lib/thumb\libsysbase.a(lseek.o)
                0x0201b7f0                _lseek_r
 .text          0x0201b840       0xa0 c:/devkitpro/devkitarm/bin/../lib/gcc/arm-eabi/4.7.0/../../../../arm-eabi/lib/thumb\libsysbase.a(open.o)
                0x0201b840                _open_r
 .text          0x0201b8e0       0x50 c:/devkitpro/devkitarm/bin/../lib/gcc/arm-eabi/4.7.0/../../../../arm-eabi/lib/thumb\libsysbase.a(read.o)
                0x0201b8e0                _read_r
 .text          0x0201b930       0x54 c:/devkitpro/devkitarm/bin/../lib/gcc/arm-eabi/4.7.0/../../../../arm-eabi/lib/thumb\libsysbase.a(sbrk.o)
                0x0201b930                _sbrk_r
 .text          0x0201b984       0x44 c:/devkitpro/devkitarm/bin/../lib/gcc/arm-eabi/4.7.0/../../../../arm-eabi/lib/thumb\libsysbase.a(times.o)
                0x0201b984                _times
                0x0201b998                _times_r
                0x0201b9a0                _gettimeofday_r
 .text          0x0201b9c8       0x58 c:/devkitpro/devkitarm/bin/../lib/gcc/arm-eabi/4.7.0/../../../../arm-eabi/lib/thumb\libsysbase.a(write.o)
                0x0201b9c8                _write_r
 .text          0x0201ba20        0x0 c:/devkitpro/devkitarm/bin/../lib/gcc/arm-eabi/4.7.0/../../../../arm-eabi/lib/thumb\libsysbase.a(malloc_vars.o)
 .text          0x0201ba20      0x24c c:/devkitpro/devkitarm/bin/../lib/gcc/arm-eabi/4.7.0/../../../../arm-eabi/lib/thumb\libsysbase.a(chdir.o)
                0x0201ba20                _concatenate_path
                0x0201bb3c                chdir
                0x0201bc1c                getcwd
 .text          0x0201bc6c       0x4c c:/devkitpro/devkitarm/bin/../lib/gcc/arm-eabi/4.7.0/../../../../arm-eabi/lib/thumb\libsysbase.a(build_argv.o)
                0x0201bc6c                build_argv
 .text          0x0201bcb8        0x0 c:/devkitpro/devkitarm/bin/../lib/gcc/arm-eabi/4.7.0/../../../../arm-eabi/lib/thumb\libsysbase.a(syscall_support.o)
 .text          0x0201bcb8       0x84 c:/devkitpro/devkitarm/bin/../lib/gcc/arm-eabi/4.7.0/../../../../arm-eabi/lib/thumb\libsysbase.a(handle_manager.o)
                0x0201bcb8                __release_handle
                0x0201bce4                __alloc_handle
                0x0201bd1c                __get_handle
 .text          0x0201bd3c      0x41c c:/devkitpro/devkitarm/bin/../lib/gcc/arm-eabi/4.7.0/thumb\libgcc.a(_arm_addsubdf3.o)
                0x0201bd3c                __aeabi_drsub
                0x0201bd44                __aeabi_dsub
                0x0201bd44                __subdf3
                0x0201bd48                __aeabi_dadd
                0x0201bd48                __adddf3
                0x0201c058                __floatunsidf
                0x0201c058                __aeabi_ui2d
                0x0201c07c                __floatsidf
                0x0201c07c                __aeabi_i2d
                0x0201c0a4                __aeabi_f2d
                0x0201c0a4                __extendsfdf2
                0x0201c0e4                __floatundidf
                0x0201c0e4                __aeabi_ul2d
                0x0201c0f8                __floatdidf
                0x0201c0f8                __aeabi_l2d
 .text          0x0201c158      0x49c c:/devkitpro/devkitarm/bin/../lib/gcc/arm-eabi/4.7.0/thumb\libgcc.a(_arm_muldivdf3.o)
                0x0201c158                __aeabi_dmul
                0x0201c158                __muldf3
                0x0201c3e8                __divdf3
                0x0201c3e8                __aeabi_ddiv
 .text          0x0201c5f4      0x144 c:/devkitpro/devkitarm/bin/../lib/gcc/arm-eabi/4.7.0/thumb\libgcc.a(_arm_cmpdf2.o)
                0x0201c5f4                __gtdf2
                0x0201c5f4                __gedf2
                0x0201c5fc                __ltdf2
                0x0201c5fc                __ledf2
                0x0201c604                __nedf2
                0x0201c604                __eqdf2
                0x0201c604                __cmpdf2
                0x0201c68c                __aeabi_cdrcmple
                0x0201c6a8                __aeabi_cdcmpeq
                0x0201c6a8                __aeabi_cdcmple
                0x0201c6c0                __aeabi_dcmpeq
                0x0201c6d8                __aeabi_dcmplt
                0x0201c6f0                __aeabi_dcmple
                0x0201c708                __aeabi_dcmpge
                0x0201c720                __aeabi_dcmpgt
 .text          0x0201c738       0x5c c:/devkitpro/devkitarm/bin/../lib/gcc/arm-eabi/4.7.0/thumb\libgcc.a(_arm_fixdfsi.o)
                0x0201c738                __aeabi_d2iz
                0x0201c738                __fixdfsi
 .text          0x0201c794       0x3c c:/devkitpro/devkitarm/bin/../lib/gcc/arm-eabi/4.7.0/thumb\libgcc.a(_aeabi_uldivmod.o)
                0x0201c794                __aeabi_uldivmod
 .text          0x0201c7d0       0x7c c:/devkitpro/devkitarm/bin/../lib/gcc/arm-eabi/4.7.0/thumb\libgcc.a(bpabi.o)
                0x0201c7d0                __gnu_ldivmod_helper
                0x0201c810                __gnu_uldivmod_helper
 .text          0x0201c84c      0x3d4 c:/devkitpro/devkitarm/bin/../lib/gcc/arm-eabi/4.7.0/thumb\libgcc.a(_divdi3.o)
                0x0201c84c                __divdi3
 .text          0x0201cc20      0x3a0 c:/devkitpro/devkitarm/bin/../lib/gcc/arm-eabi/4.7.0/thumb\libgcc.a(_udivdi3.o)
                0x0201cc20                __udivdi3
 .text          0x0201cfc0      0xab4 c:/devkitpro/devkitarm/bin/../lib/gcc/arm-eabi/4.7.0/thumb\libgcc.a(unwind-arm.o)
                0x0201d2bc                _Unwind_GetCFA
                0x0201d2c0                __gnu_Unwind_RaiseException
                0x0201d320                __gnu_Unwind_ForcedUnwind
                0x0201d338                __gnu_Unwind_Resume
                0x0201d380                __gnu_Unwind_Resume_or_Rethrow
                0x0201d3a0                _Unwind_Complete
                0x0201d3a4                _Unwind_DeleteException
                0x0201d3bc                _Unwind_VRS_Get
                0x0201d408                _Unwind_VRS_Set
                0x0201d764                __aeabi_unwind_cpp_pr2
                0x0201d774                __aeabi_unwind_cpp_pr1
                0x0201d784                __aeabi_unwind_cpp_pr0
                0x0201d794                __gnu_Unwind_Backtrace
                0x0201d808                _Unwind_VRS_Pop
 .text          0x0201da74      0x1d8 c:/devkitpro/devkitarm/bin/../lib/gcc/arm-eabi/4.7.0/thumb\libgcc.a(libunwind.o)
                0x0201da74                __restore_core_regs
                0x0201da74                restore_core_regs
                0x0201da90                __gnu_Unwind_Restore_VFP
                0x0201da98                __gnu_Unwind_Save_VFP
                0x0201daa0                __gnu_Unwind_Restore_VFP_D
                0x0201daa8                __gnu_Unwind_Save_VFP_D
                0x0201dab0                __gnu_Unwind_Restore_VFP_D_16_to_31
                0x0201dab8                __gnu_Unwind_Save_VFP_D_16_to_31
                0x0201dac0                __gnu_Unwind_Restore_WMMXD
                0x0201db04                __gnu_Unwind_Save_WMMXD
                0x0201db48                __gnu_Unwind_Restore_WMMXC
                0x0201db5c                __gnu_Unwind_Save_WMMXC
                0x0201db70                ___Unwind_RaiseException
                0x0201db70                _Unwind_RaiseException
                0x0201db9c                _Unwind_Resume
                0x0201db9c                ___Unwind_Resume
                0x0201dbc8                _Unwind_Resume_or_Rethrow
                0x0201dbc8                ___Unwind_Resume_or_Rethrow
                0x0201dbf4                _Unwind_ForcedUnwind
                0x0201dbf4                ___Unwind_ForcedUnwind
                0x0201dc20                ___Unwind_Backtrace
                0x0201dc20                _Unwind_Backtrace
 .text          0x0201dc4c      0x3e0 c:/devkitpro/devkitarm/bin/../lib/gcc/arm-eabi/4.7.0/thumb\libgcc.a(pr-support.o)
                0x0201dca8                __gnu_unwind_execute
                0x0201dfc8                __gnu_unwind_frame
                0x0201dff4                _Unwind_GetRegionStart
                0x0201e004                _Unwind_GetLanguageSpecificData
                0x0201e01c                _Unwind_GetDataRelBase
                0x0201e024                _Unwind_GetTextRelBase
 .text          0x0201e02c       0x48 c:/devkitpro/devkitarm/bin/../lib/gcc/arm-eabi/4.7.0/thumb\libgcc.a(_clzsi2.o)
                0x0201e02c                __clzsi2
 .text          0x0201e074       0x10 c:/devkitpro/devkitarm/bin/../lib/gcc/arm-eabi/4.7.0/../../../../arm-eabi/lib/thumb\libg.a(lib_a-abort.o)
                0x0201e074                abort
 .text          0x0201e084        0xc c:/devkitpro/devkitarm/bin/../lib/gcc/arm-eabi/4.7.0/../../../../arm-eabi/lib/thumb\libg.a(lib_a-errno.o)
                0x0201e084                __errno
 .text          0x0201e090      0x198 c:/devkitpro/devkitarm/bin/../lib/gcc/arm-eabi/4.7.0/../../../../arm-eabi/lib/thumb\libg.a(lib_a-signal.o)
                0x0201e090                _init_signal_r
                0x0201e0d0                _signal_r
                0x0201e110                _raise_r
                0x0201e170                __sigtramp_r
                0x0201e1c4                raise
                0x0201e1dc                signal
                0x0201e1f8                _init_signal
                0x0201e20c                __sigtramp
 .text          0x0201e228        0xc c:/devkitpro/devkitarm/bin/../lib/gcc/arm-eabi/4.7.0/../../../../arm-eabi/lib/thumb\libsysbase.a(getpid.o)
                0x0201e228                _getpid_r
 .text          0x0201e234        0xc c:/devkitpro/devkitarm/bin/../lib/gcc/arm-eabi/4.7.0/../../../../arm-eabi/lib/thumb\libsysbase.a(kill.o)
                0x0201e234                _kill_r
 .text          0x0201e240       0x18 c:/devkitpro/devkitarm/bin/../lib/gcc/arm-eabi/4.7.0/../../../../arm-eabi/lib/thumb\libsysbase.a(_exit.o)
                0x0201e240                _exit
 .text          0x0201e258        0x0 c:/devkitpro/devkitarm/bin/../lib/gcc/arm-eabi/4.7.0/thumb/crtend.o
 .text          0x0201e258        0x0 c:/devkitpro/devkitarm/bin/../lib/gcc/arm-eabi/4.7.0/thumb/crtn.o
 *(.text.*)
 .text.startup  0x0201e258       0xb8 main.o
                0x0201e258                main
 .text.startup.stub
                0x0201e310      0x11c linker stubs
 *(.stub)
 *(.gnu.warning)
 *(.gnu.linkonce.t*)
 *(.glue_7)
 .glue_7        0x00000000        0x0 linker stubs
 *(.glue_7t)
 .glue_7t       0x00000000        0x0 linker stubs
                0x0201e42c                . = ALIGN (0x4)

.vfp11_veneer   0x0201e438        0x0
 .vfp11_veneer  0x00000000        0x0 linker stubs

.v4_bx          0x0201e438        0x0
 .v4_bx         0x00000000        0x0 linker stubs

.iplt           0x0201e438        0x0
 .iplt          0x00000000        0x0 c:/devkitpro/devkitarm/bin/../lib/gcc/arm-eabi/4.7.0/../../../../arm-eabi/lib/thumb/ds_arm9_crt0.o

.fini           0x0201e438        0xc
 *(.fini)
 .fini          0x0201e438        0x4 c:/devkitpro/devkitarm/bin/../lib/gcc/arm-eabi/4.7.0/thumb/crti.o
                0x0201e438                _fini
 .fini          0x0201e43c        0x8 c:/devkitpro/devkitarm/bin/../lib/gcc/arm-eabi/4.7.0/thumb/crtn.o
                0x0201e444                __text_end = .

.rodata         0x0201e448     0x73c8
 *(.rodata)
 .rodata        0x0201e448       0x64 c:/devkitPro/libnds/lib\libfat.a(libfat.o)
 .rodata        0x0201e4ac        0xc c:/devkitPro/libnds/lib\libfat.a(partition.o)
 .rodata        0x0201e4b8       0x54 c:/devkitPro/libnds/lib\libfat.a(directory.o)
 .rodata        0x0201e50c       0x18 c:/devkitPro/libnds/lib\libfat.a(disc.o)
                0x0201e50c                _FAT_disc_interfaces
 .rodata        0x0201e524      0x200 c:/devkitPro/libnds/lib\libnds9.a(console.o)
 .rodata        0x0201e724        0xc c:/devkitPro/libnds/lib\libnds9.a(dldi.o)
                0x0201e724                DLDI_MAGIC_STRING_BACKWARDS
                0x0201e72c                DLDI_MAGIC_NUMBER
 .rodata        0x0201e730       0x20 c:/devkitPro/libnds/lib\libnds9.a(dsi_sd.o)
                0x0201e730                __io_dsisd
 .rodata        0x0201e750     0x2004 c:/devkitPro/libnds/lib\libnds9.a(default_font.bin.o)
                0x0201e750                default_font_bin
                0x02020750                default_font_bin_size
                0x02020750                default_font_bin_end
 .rodata        0x02020754      0x308 c:/devkitPro/libnds/lib\libnds9.a(trig.o)
                0x02020754                SIN_LUT
                0x02020858                TAN_LUT
 .rodata        0x02020a5c      0x104 c:/devkitpro/devkitarm/bin/../lib/gcc/arm-eabi/4.7.0/../../../../arm-eabi/lib/thumb\libg.a(lib_a-ctype_.o)
                0x02020a5c                _ctype_
 .rodata        0x02020b60        0x4 c:/devkitpro/devkitarm/bin/../lib/gcc/arm-eabi/4.7.0/../../../../arm-eabi/lib/thumb\libg.a(lib_a-impure.o)
                0x02020b60                _global_impure_ptr
 .rodata        0x02020b64       0xf0 c:/devkitpro/devkitarm/bin/../lib/gcc/arm-eabi/4.7.0/../../../../arm-eabi/lib/thumb\libg.a(lib_a-locale.o)
 .rodata        0x02020c54       0xa8 c:/devkitpro/devkitarm/bin/../lib/gcc/arm-eabi/4.7.0/../../../../arm-eabi/lib/thumb\libg.a(lib_a-mbtowc_r.o)
 .rodata        0x02020cfc       0x60 c:/devkitpro/devkitarm/bin/../lib/gcc/arm-eabi/4.7.0/../../../../arm-eabi/lib/thumb\libg.a(lib_a-mktime.o)
 .rodata        0x02020d5c       0x68 c:/devkitpro/devkitarm/bin/../lib/gcc/arm-eabi/4.7.0/../../../../arm-eabi/lib/thumb\libg.a(lib_a-mktm_r.o)
 .rodata        0x02020dc4      0x340 c:/devkitpro/devkitarm/bin/../lib/gcc/arm-eabi/4.7.0/../../../../arm-eabi/lib/thumb\libg.a(lib_a-svfiscanf.o)
 .rodata        0x02021104      0x184 c:/devkitpro/devkitarm/bin/../lib/gcc/arm-eabi/4.7.0/../../../../arm-eabi/lib/thumb\libg.a(lib_a-svfprintf.o)
 .rodata        0x02021288      0x580 c:/devkitpro/devkitarm/bin/../lib/gcc/arm-eabi/4.7.0/../../../../arm-eabi/lib/thumb\libg.a(lib_a-towlower.o)
 .rodata        0x02021808      0x3e4 c:/devkitpro/devkitarm/bin/../lib/gcc/arm-eabi/4.7.0/../../../../arm-eabi/lib/thumb\libg.a(lib_a-towupper.o)
 .rodata        0x02021bec      0x184 c:/devkitpro/devkitarm/bin/../lib/gcc/arm-eabi/4.7.0/../../../../arm-eabi/lib/thumb\libg.a(lib_a-vfiprintf.o)
 .rodata        0x02021d70     0x34f0 c:/devkitpro/devkitarm/bin/../lib/gcc/arm-eabi/4.7.0/../../../../arm-eabi/lib/thumb\libg.a(lib_a-jp2uc.o)
 .rodata        0x02025260      0x128 c:/devkitpro/devkitarm/bin/../lib/gcc/arm-eabi/4.7.0/../../../../arm-eabi/lib/thumb\libg.a(lib_a-mprec.o)
                0x02025270                __mprec_tens
                0x02025338                __mprec_tinytens
                0x02025360                __mprec_bigtens
 .rodata        0x02025388      0x184 c:/devkitpro/devkitarm/bin/../lib/gcc/arm-eabi/4.7.0/../../../../arm-eabi/lib/thumb\libg.a(lib_a-svfiprintf.o)
 .rodata        0x0202550c       0x64 c:/devkitpro/devkitarm/bin/../lib/gcc/arm-eabi/4.7.0/../../../../arm-eabi/lib/thumb\libsysbase.a(iosupport.o)
                0x0202550c                dotab_stdnull
 .rodata        0x02025570        0xc c:/devkitpro/devkitarm/bin/../lib/gcc/arm-eabi/4.7.0/../../../../arm-eabi/lib/thumb\libsysbase.a(chdir.o)
                0x02025570                DIRECTORY_PARENT
                0x02025574                DIRECTORY_THIS
                0x02025578                DIRECTORY_SEPARATOR
 .rodata        0x0202557c       0x14 c:/devkitpro/devkitarm/bin/../lib/gcc/arm-eabi/4.7.0/thumb\libgcc.a(unwind-arm.o)
 *all.rodata*(*)
 *(.roda)
 *(.rodata.*)
 .rodata.str1.4
                0x02025590       0x84 main.o
 .rodata.str1.4
                0x02025614       0x14 c:/devkitPro/libnds/lib\libfat.a(libfat.o)
 .rodata.str1.4
                0x02025628        0x7 c:/devkitPro/libnds/lib\libfat.a(directory.o)
                                  0x8 (size before relaxing)
 *fill*         0x0202562f        0x1 ff
 .rodata.str1.4
                0x02025630        0x3 c:/devkitPro/libnds/lib\libfat.a(disc.o)
                                  0x8 (size before relaxing)
 *fill*         0x02025633        0x1 ff
 .rodata.str1.4
                0x02025634        0x5 c:/devkitPro/libnds/lib\libfat.a(fatdir.o)
                                  0x8 (size before relaxing)
 *fill*         0x02025639        0x3 ff
 .rodata.str1.4
                0x0202563c       0x49 c:/devkitPro/libnds/lib\libnds9.a(console.o)
                                 0x4c (size before relaxing)
 *fill*         0x02025685        0x3 ff
 .rodata.str1.4
                0x02025688        0x2 c:/devkitpro/devkitarm/bin/../lib/gcc/arm-eabi/4.7.0/../../../../arm-eabi/lib/thumb\libg.a(lib_a-impure.o)
                                  0x4 (size before relaxing)
 *fill*         0x0202568a        0x2 ff
 .rodata.str1.4
                0x0202568c      0x124 c:/devkitpro/devkitarm/bin/../lib/gcc/arm-eabi/4.7.0/../../../../arm-eabi/lib/thumb\libg.a(lib_a-locale.o)
                                0x130 (size before relaxing)
 .rodata.str1.4
                0x00000000        0x4 c:/devkitpro/devkitarm/bin/../lib/gcc/arm-eabi/4.7.0/../../../../arm-eabi/lib/thumb\libg.a(lib_a-mbrtowc.o)
 .rodata.str1.4
                0x020257b0       0x42 c:/devkitpro/devkitarm/bin/../lib/gcc/arm-eabi/4.7.0/../../../../arm-eabi/lib/thumb\libg.a(lib_a-svfprintf.o)
                                 0x44 (size before relaxing)
 *fill*         0x020257f2        0x2 ff
 .rodata.str1.4
                0x020257f4        0x4 c:/devkitpro/devkitarm/bin/../lib/gcc/arm-eabi/4.7.0/../../../../arm-eabi/lib/thumb\libg.a(lib_a-tzvars.o)
 .rodata.str1.4
                0x00000000       0x30 c:/devkitpro/devkitarm/bin/../lib/gcc/arm-eabi/4.7.0/../../../../arm-eabi/lib/thumb\libg.a(lib_a-vfiprintf.o)
 .rodata.str1.4
                0x020257f8       0x10 c:/devkitpro/devkitarm/bin/../lib/gcc/arm-eabi/4.7.0/../../../../arm-eabi/lib/thumb\libg.a(lib_a-dtoa.o)
                                 0x14 (size before relaxing)
 .rodata.str1.4
                0x00000000       0x14 c:/devkitpro/devkitarm/bin/../lib/gcc/arm-eabi/4.7.0/../../../../arm-eabi/lib/thumb\libg.a(lib_a-jp2uc.o)
 .rodata.str1.4
                0x00000000       0x30 c:/devkitpro/devkitarm/bin/../lib/gcc/arm-eabi/4.7.0/../../../../arm-eabi/lib/thumb\libg.a(lib_a-svfiprintf.o)
 .rodata.str1.4
                0x02025808        0x8 c:/devkitpro/devkitarm/bin/../lib/gcc/arm-eabi/4.7.0/../../../../arm-eabi/lib/thumb\libsysbase.a(iosupport.o)
 *(.gnu.linkonce.r*)
                0x02025810                . = ALIGN (0x4)

.ARM.extab      0x02025810       0x18
 *(.ARM.extab* .gnu.linkonce.armextab.*)
 .ARM.extab     0x02025810        0xc c:/devkitpro/devkitarm/bin/../lib/gcc/arm-eabi/4.7.0/thumb\libgcc.a(_divdi3.o)
 .ARM.extab     0x0202581c        0xc c:/devkitpro/devkitarm/bin/../lib/gcc/arm-eabi/4.7.0/thumb\libgcc.a(_udivdi3.o)
                0x02025828                __exidx_start = .

ARM.exidx       0x02025828       0x18
 *(.ARM.exidx* .gnu.linkonce.armexidx.*)
 .ARM.exidx     0x02025828        0x8 c:/devkitpro/devkitarm/bin/../lib/gcc/arm-eabi/4.7.0/thumb\libgcc.a(_divdi3.o)
 .ARM.exidx     0x02025830       0x10 c:/devkitpro/devkitarm/bin/../lib/gcc/arm-eabi/4.7.0/thumb\libgcc.a(_udivdi3.o)
                                  0x8 (size before relaxing)
                0x02025840                __exidx_end = .

.rel.dyn        0x02025840        0x0
 .rel.iplt      0x00000000        0x0 c:/devkitpro/devkitarm/bin/../lib/gcc/arm-eabi/4.7.0/../../../../arm-eabi/lib/thumb/ds_arm9_crt0.o
                0x02025840                . = ALIGN (0x4)
                0x02025840                PROVIDE (__preinit_array_start, .)

.preinit_array
 *(.preinit_array)
                0x02025840                PROVIDE (__preinit_array_end, .)
                0x02025840                PROVIDE (__init_array_start, .)

.init_array     0x02025840        0x4
 *(SORT(.init_array.*))
 *(.init_array)
 .init_array    0x02025840        0x4 c:/devkitpro/devkitarm/bin/../lib/gcc/arm-eabi/4.7.0/thumb/crtbegin.o
                0x02025844                PROVIDE (__init_array_end, .)
                0x02025844                PROVIDE (__fini_array_start, .)

.fini_array     0x02025844        0x4
 *(.fini_array)
 .fini_array    0x02025844        0x4 c:/devkitpro/devkitarm/bin/../lib/gcc/arm-eabi/4.7.0/thumb/crtbegin.o
 *(SORT(.fini_array.*))
                0x02025848                PROVIDE (__fini_array_end, .)

.ctors          0x02025848        0x0
 *crtbegin.o(.ctors)
 *(EXCLUDE_FILE(*crtend.o) .ctors)
 *(SORT(.ctors.*))
 *(.ctors)
                0x02025848                . = ALIGN (0x4)

.dtors          0x02025848        0x0
 *crtbegin.o(.dtors)
 *(EXCLUDE_FILE(*crtend.o) .dtors)
 *(SORT(.dtors.*))
 *(.dtors)
                0x02025848                . = ALIGN (0x4)

.eh_frame       0x02025848        0x4
 *(.eh_frame)
 .eh_frame      0x02025848        0x0 c:/devkitpro/devkitarm/bin/../lib/gcc/arm-eabi/4.7.0/thumb/crtbegin.o
 .eh_frame      0x02025848        0x4 c:/devkitpro/devkitarm/bin/../lib/gcc/arm-eabi/4.7.0/thumb/crtend.o
                0x0202584c                . = ALIGN (0x4)

.gcc_except_table
                0x0202584c        0x0
 *(.gcc_except_table)
                0x0202584c                . = ALIGN (0x4)

.jcr            0x0202584c        0x4
 *(.jcr)
 .jcr           0x0202584c        0x0 c:/devkitpro/devkitarm/bin/../lib/gcc/arm-eabi/4.7.0/thumb/crtbegin.o
 .jcr           0x0202584c        0x4 c:/devkitpro/devkitarm/bin/../lib/gcc/arm-eabi/4.7.0/thumb/crtend.o

.got
 *(.got.plt)
 *(.got)
 *(.rel.got)

.ewram          0x02025850        0x0
                0x02025850                __ewram_start = ABSOLUTE (.)
 *(.ewram)
 *ewram.*(.text)
                0x02025850                . = ALIGN (0x4)

.data           0x02025850      0xf3c
                0x02025850                __data_start = ABSOLUTE (.)
 *(.data)
 .data          0x02025850        0x0 c:/devkitpro/devkitarm/bin/../lib/gcc/arm-eabi/4.7.0/../../../../arm-eabi/lib/thumb/ds_arm9_crt0.o
 .data          0x02025850        0x0 c:/devkitpro/devkitarm/bin/../lib/gcc/arm-eabi/4.7.0/thumb/crti.o
 .data          0x02025850        0x4 c:/devkitpro/devkitarm/bin/../lib/gcc/arm-eabi/4.7.0/thumb/crtbegin.o
                0x02025850                __dso_handle
 .data          0x02025854        0x0 main.o
 .data          0x02025854        0x0 c:/devkitPro/libnds/lib\libfat.a(libfat.o)
 .data          0x02025854        0x0 c:/devkitPro/libnds/lib\libfat.a(partition.o)
 .data          0x02025854        0x0 c:/devkitPro/libnds/lib\libfat.a(cache.o)
 .data          0x02025854        0x0 c:/devkitPro/libnds/lib\libfat.a(directory.o)
 .data          0x02025854        0x0 c:/devkitPro/libnds/lib\libfat.a(disc.o)
 .data          0x02025854        0x0 c:/devkitPro/libnds/lib\libfat.a(fatdir.o)
 .data          0x02025854        0x0 c:/devkitPro/libnds/lib\libfat.a(fatfile.o)
 .data          0x02025854        0x0 c:/devkitPro/libnds/lib\libfat.a(file_allocation_table.o)
 .data          0x02025854        0x0 c:/devkitPro/libnds/lib\libfat.a(filetime.o)
 .data          0x02025854        0x0 c:/devkitPro/libnds/lib\libfat.a(lock.o)
 .data          0x02025854       0x64 c:/devkitPro/libnds/lib\libnds9.a(console.o)
                0x02025854                currentConsole
                0x02025858                defaultConsole
 .data          0x020258b8        0x3 c:/devkitPro/libnds/lib\libnds9.a(keys.o)
 *fill*         0x020258bb        0x1 ff
 .data          0x020258bc        0x4 c:/devkitPro/libnds/lib\libnds9.a(dldi.o)
                0x020258bc                io_dldi_data
 .data          0x020258c0        0x0 c:/devkitPro/libnds/lib\libnds9.a(dsi_sd.o)
 .data          0x020258c0        0x0 c:/devkitPro/libnds/lib\libnds9.a(initSystem.o)
 .data          0x020258c0       0x10 c:/devkitPro/libnds/lib\libnds9.a(fifosystem.o)
                0x020258c0                fifo_buffer_free
                0x020258c4                fifo_freewords
                0x020258c8                fifo_send_queue
                0x020258cc                fifo_receive_queue
 .data          0x020258d0        0x0 c:/devkitPro/libnds/lib\libnds9.a(interrupts.o)
 .data          0x020258d0        0x0 c:/devkitPro/libnds/lib\libnds9.a(libnds_exit.o)
 .data          0x020258d0        0x0 c:/devkitPro/libnds/lib\libnds9.a(dcache.o)
 .data          0x020258d0        0x0 c:/devkitPro/libnds/lib\libnds9.a(dldi_stub.o)
 .data          0x020258d0        0x0 c:/devkitPro/libnds/lib\libnds9.a(mpu_setup.o)
 .data          0x020258d0        0x0 c:/devkitPro/libnds/lib\libnds9.a(biosCalls.o)
 .data          0x020258d0        0x0 c:/devkitPro/libnds/lib\libnds9.a(debugprint.o)
 .data          0x020258d0        0x0 c:/devkitPro/libnds/lib\libnds9.a(interruptDispatcher.o)
 .data          0x020258d0        0x0 c:/devkitPro/libnds/lib\libnds9.a(swiSoftReset.o)
 .data          0x020258d0        0x0 c:/devkitPro/libnds/lib\libnds9.a(default_font.bin.o)
 .data          0x020258d0       0x60 c:/devkitPro/libnds/lib\libnds9.a(background.o)
                0x020258d0                bgScrollTable
                0x020258f0                bgTransform
                0x02025910                bgControl
 .data          0x02025930        0x0 c:/devkitPro/libnds/lib\libnds9.a(system.o)
 .data          0x02025930        0x0 c:/devkitPro/libnds/lib\libnds9.a(trig.o)
 .data          0x02025930        0x0 c:/devkitPro/libnds/lib\libnds9.a(video.o)
 .data          0x02025930        0x0 c:/devkitpro/devkitarm/bin/../lib/gcc/arm-eabi/4.7.0/thumb\libgcc.a(_udivsi3.o)
 .data          0x02025930        0x0 c:/devkitpro/devkitarm/bin/../lib/gcc/arm-eabi/4.7.0/thumb\libgcc.a(_divsi3.o)
 .data          0x02025930        0x0 c:/devkitpro/devkitarm/bin/../lib/gcc/arm-eabi/4.7.0/thumb\libgcc.a(_dvmd_tls.o)
 .data          0x02025930        0x0 c:/devkitpro/devkitarm/bin/../lib/gcc/arm-eabi/4.7.0/thumb\libgcc.a(_muldi3.o)
 .data          0x02025930        0x0 c:/devkitpro/devkitarm/bin/../lib/gcc/arm-eabi/4.7.0/../../../../arm-eabi/lib/thumb\libg.a(lib_a-bsearch.o)
 .data          0x02025930        0x4 c:/devkitpro/devkitarm/bin/../lib/gcc/arm-eabi/4.7.0/../../../../arm-eabi/lib/thumb\libg.a(lib_a-ctype_.o)
                0x02025930                __ctype_ptr__
 .data          0x02025934        0x0 c:/devkitpro/devkitarm/bin/../lib/gcc/arm-eabi/4.7.0/../../../../arm-eabi/lib/thumb\libg.a(lib_a-fclose.o)
 .data          0x02025934        0x0 c:/devkitpro/devkitarm/bin/../lib/gcc/arm-eabi/4.7.0/../../../../arm-eabi/lib/thumb\libg.a(lib_a-fflush.o)
 .data          0x02025934        0x0 c:/devkitpro/devkitarm/bin/../lib/gcc/arm-eabi/4.7.0/../../../../arm-eabi/lib/thumb\libg.a(lib_a-findfp.o)
 .data          0x02025934        0x0 c:/devkitpro/devkitarm/bin/../lib/gcc/arm-eabi/4.7.0/../../../../arm-eabi/lib/thumb\libg.a(lib_a-fopen.o)
 .data          0x02025934        0x0 c:/devkitpro/devkitarm/bin/../lib/gcc/arm-eabi/4.7.0/../../../../arm-eabi/lib/thumb\libg.a(lib_a-freer.o)
 .data          0x02025934        0x0 c:/devkitpro/devkitarm/bin/../lib/gcc/arm-eabi/4.7.0/../../../../arm-eabi/lib/thumb\libg.a(lib_a-fseek.o)
 .data          0x02025934        0x0 c:/devkitpro/devkitarm/bin/../lib/gcc/arm-eabi/4.7.0/../../../../arm-eabi/lib/thumb\libg.a(lib_a-fwalk.o)
 .data          0x02025934        0x0 c:/devkitpro/devkitarm/bin/../lib/gcc/arm-eabi/4.7.0/../../../../arm-eabi/lib/thumb\libg.a(lib_a-fwrite.o)
 *fill*         0x02025934        0x4 ff
 .data          0x02025938      0x430 c:/devkitpro/devkitarm/bin/../lib/gcc/arm-eabi/4.7.0/../../../../arm-eabi/lib/thumb\libg.a(lib_a-impure.o)
                0x02025938                _impure_ptr
 .data          0x02025d68        0x0 c:/devkitpro/devkitarm/bin/../lib/gcc/arm-eabi/4.7.0/../../../../arm-eabi/lib/thumb\libg.a(lib_a-init.o)
 .data          0x02025d68        0x0 c:/devkitpro/devkitarm/bin/../lib/gcc/arm-eabi/4.7.0/../../../../arm-eabi/lib/thumb\libg.a(lib_a-iprintf.o)
 .data          0x02025d68        0x0 c:/devkitpro/devkitarm/bin/../lib/gcc/arm-eabi/4.7.0/../../../../arm-eabi/lib/thumb\libg.a(lib_a-lcltime_r.o)
 .data          0x02025d68      0x17c c:/devkitpro/devkitarm/bin/../lib/gcc/arm-eabi/4.7.0/../../../../arm-eabi/lib/thumb\libg.a(lib_a-locale.o)
                0x02025d68                __default_locale
                0x02025e88                __mb_cur_max
 .data          0x02025ee4        0x0 c:/devkitpro/devkitarm/bin/../lib/gcc/arm-eabi/4.7.0/../../../../arm-eabi/lib/thumb\libg.a(lib_a-makebuf.o)
 .data          0x02025ee4        0x0 c:/devkitpro/devkitarm/bin/../lib/gcc/arm-eabi/4.7.0/../../../../arm-eabi/lib/thumb\libg.a(lib_a-malloc.o)
 .data          0x02025ee4      0x410 c:/devkitpro/devkitarm/bin/../lib/gcc/arm-eabi/4.7.0/../../../../arm-eabi/lib/thumb\libg.a(lib_a-mallocr.o)
                0x02025ee4                __malloc_av_
                0x020262ec                __malloc_sbrk_base
                0x020262f0                __malloc_trim_threshold
 .data          0x020262f4        0x0 c:/devkitpro/devkitarm/bin/../lib/gcc/arm-eabi/4.7.0/../../../../arm-eabi/lib/thumb\libg.a(lib_a-mbrtowc.o)
 .data          0x020262f4        0x0 c:/devkitpro/devkitarm/bin/../lib/gcc/arm-eabi/4.7.0/../../../../arm-eabi/lib/thumb\libg.a(lib_a-mbsrtowcs.o)
 .data          0x020262f4        0x4 c:/devkitpro/devkitarm/bin/../lib/gcc/arm-eabi/4.7.0/../../../../arm-eabi/lib/thumb\libg.a(lib_a-mbtowc_r.o)
                0x020262f4                __mbtowc
 .data          0x020262f8        0x0 c:/devkitpro/devkitarm/bin/../lib/gcc/arm-eabi/4.7.0/../../../../arm-eabi/lib/thumb\libg.a(lib_a-memcmp.o)
 .data          0x020262f8        0x0 c:/devkitpro/devkitarm/bin/../lib/gcc/arm-eabi/4.7.0/../../../../arm-eabi/lib/thumb\libg.a(lib_a-memcpy-stub.o)
 .data          0x020262f8        0x0 c:/devkitpro/devkitarm/bin/../lib/gcc/arm-eabi/4.7.0/../../../../arm-eabi/lib/thumb\libg.a(lib_a-memmove.o)
 .data          0x020262f8        0x0 c:/devkitpro/devkitarm/bin/../lib/gcc/arm-eabi/4.7.0/../../../../arm-eabi/lib/thumb\libg.a(lib_a-memset.o)
 .data          0x020262f8        0x0 c:/devkitpro/devkitarm/bin/../lib/gcc/arm-eabi/4.7.0/../../../../arm-eabi/lib/thumb\libg.a(lib_a-mktime.o)
 .data          0x020262f8        0x0 c:/devkitpro/devkitarm/bin/../lib/gcc/arm-eabi/4.7.0/../../../../arm-eabi/lib/thumb\libg.a(lib_a-mktm_r.o)
 .data          0x020262f8        0x0 c:/devkitpro/devkitarm/bin/../lib/gcc/arm-eabi/4.7.0/../../../../arm-eabi/lib/thumb\libg.a(lib_a-mlock.o)
 .data          0x020262f8        0x0 c:/devkitpro/devkitarm/bin/../lib/gcc/arm-eabi/4.7.0/../../../../arm-eabi/lib/thumb\libg.a(lib_a-refill.o)
 .data          0x020262f8        0x0 c:/devkitpro/devkitarm/bin/../lib/gcc/arm-eabi/4.7.0/../../../../arm-eabi/lib/thumb\libg.a(lib_a-setvbuf.o)
 .data          0x020262f8        0x0 c:/devkitpro/devkitarm/bin/../lib/gcc/arm-eabi/4.7.0/../../../../arm-eabi/lib/thumb\libg.a(lib_a-siscanf.o)
 .data          0x020262f8        0x0 c:/devkitpro/devkitarm/bin/../lib/gcc/arm-eabi/4.7.0/../../../../arm-eabi/lib/thumb\libg.a(lib_a-sprintf.o)
 .data          0x020262f8        0x0 c:/devkitpro/devkitarm/bin/../lib/gcc/arm-eabi/4.7.0/../../../../arm-eabi/lib/thumb\libg.a(lib_a-stdio.o)
 .data          0x020262f8        0x0 c:/devkitpro/devkitarm/bin/../lib/gcc/arm-eabi/4.7.0/../../../../arm-eabi/lib/thumb\libg.a(lib_a-strcasecmp.o)
 .data          0x020262f8        0x0 c:/devkitpro/devkitarm/bin/../lib/gcc/arm-eabi/4.7.0/../../../../arm-eabi/lib/thumb\libg.a(lib_a-strcat.o)
 .data          0x020262f8        0x0 c:/devkitpro/devkitarm/bin/../lib/gcc/arm-eabi/4.7.0/../../../../arm-eabi/lib/thumb\libg.a(lib_a-strchr.o)
 .data          0x020262f8        0x0 c:/devkitpro/devkitarm/bin/../lib/gcc/arm-eabi/4.7.0/../../../../arm-eabi/lib/thumb\libg.a(lib_a-strcmp.o)
 .data          0x020262f8        0x0 c:/devkitpro/devkitarm/bin/../lib/gcc/arm-eabi/4.7.0/../../../../arm-eabi/lib/thumb\libg.a(lib_a-strcpy.o)
 .data          0x020262f8        0x0 c:/devkitpro/devkitarm/bin/../lib/gcc/arm-eabi/4.7.0/../../../../arm-eabi/lib/thumb\libg.a(lib_a-strlcpy.o)
 .data          0x020262f8        0x0 c:/devkitpro/devkitarm/bin/../lib/gcc/arm-eabi/4.7.0/../../../../arm-eabi/lib/thumb\libg.a(lib_a-strlen.o)
 .data          0x020262f8        0x0 c:/devkitpro/devkitarm/bin/../lib/gcc/arm-eabi/4.7.0/../../../../arm-eabi/lib/thumb\libg.a(lib_a-strncasecmp.o)
 .data          0x020262f8        0x0 c:/devkitpro/devkitarm/bin/../lib/gcc/arm-eabi/4.7.0/../../../../arm-eabi/lib/thumb\libg.a(lib_a-strncmp.o)
 .data          0x020262f8        0x0 c:/devkitpro/devkitarm/bin/../lib/gcc/arm-eabi/4.7.0/../../../../arm-eabi/lib/thumb\libg.a(lib_a-strncpy.o)
 .data          0x020262f8        0x0 c:/devkitpro/devkitarm/bin/../lib/gcc/arm-eabi/4.7.0/../../../../arm-eabi/lib/thumb\libg.a(lib_a-strnlen.o)
 .data          0x020262f8        0x0 c:/devkitpro/devkitarm/bin/../lib/gcc/arm-eabi/4.7.0/../../../../arm-eabi/lib/thumb\libg.a(lib_a-strpbrk.o)
 .data          0x020262f8        0x0 c:/devkitpro/devkitarm/bin/../lib/gcc/arm-eabi/4.7.0/../../../../arm-eabi/lib/thumb\libg.a(lib_a-strrchr.o)
 .data          0x020262f8        0x0 c:/devkitpro/devkitarm/bin/../lib/gcc/arm-eabi/4.7.0/../../../../arm-eabi/lib/thumb\libg.a(lib_a-strtol.o)
 .data          0x020262f8        0x0 c:/devkitpro/devkitarm/bin/../lib/gcc/arm-eabi/4.7.0/../../../../arm-eabi/lib/thumb\libg.a(lib_a-svfiscanf.o)
 .data          0x020262f8        0x0 c:/devkitpro/devkitarm/bin/../lib/gcc/arm-eabi/4.7.0/../../../../arm-eabi/lib/thumb\libg.a(lib_a-svfprintf.o)
 .data          0x020262f8        0x0 c:/devkitpro/devkitarm/bin/../lib/gcc/arm-eabi/4.7.0/../../../../arm-eabi/lib/thumb\libg.a(lib_a-sysclose.o)
 .data          0x020262f8        0x0 c:/devkitpro/devkitarm/bin/../lib/gcc/arm-eabi/4.7.0/../../../../arm-eabi/lib/thumb\libg.a(lib_a-syslseek.o)
 .data          0x020262f8        0x0 c:/devkitpro/devkitarm/bin/../lib/gcc/arm-eabi/4.7.0/../../../../arm-eabi/lib/thumb\libg.a(lib_a-sysopen.o)
 .data          0x020262f8        0x0 c:/devkitpro/devkitarm/bin/../lib/gcc/arm-eabi/4.7.0/../../../../arm-eabi/lib/thumb\libg.a(lib_a-sysread.o)
 .data          0x020262f8        0x0 c:/devkitpro/devkitarm/bin/../lib/gcc/arm-eabi/4.7.0/../../../../arm-eabi/lib/thumb\libg.a(lib_a-time.o)
 .data          0x020262f8        0x0 c:/devkitpro/devkitarm/bin/../lib/gcc/arm-eabi/4.7.0/../../../../arm-eabi/lib/thumb\libg.a(lib_a-towlower.o)
 .data          0x020262f8        0x0 c:/devkitpro/devkitarm/bin/../lib/gcc/arm-eabi/4.7.0/../../../../arm-eabi/lib/thumb\libg.a(lib_a-towupper.o)
 .data          0x020262f8        0x0 c:/devkitpro/devkitarm/bin/../lib/gcc/arm-eabi/4.7.0/../../../../arm-eabi/lib/thumb\libg.a(lib_a-tzlock.o)
 .data          0x020262f8        0x8 c:/devkitpro/devkitarm/bin/../lib/gcc/arm-eabi/4.7.0/../../../../arm-eabi/lib/thumb\libg.a(lib_a-tzvars.o)
                0x020262f8                _tzname
 .data          0x02026300        0x0 c:/devkitpro/devkitarm/bin/../lib/gcc/arm-eabi/4.7.0/../../../../arm-eabi/lib/thumb\libg.a(lib_a-ungetc.o)
 .data          0x02026300        0x0 c:/devkitpro/devkitarm/bin/../lib/gcc/arm-eabi/4.7.0/../../../../arm-eabi/lib/thumb\libg.a(lib_a-vfiprintf.o)
 .data          0x02026300        0x0 c:/devkitpro/devkitarm/bin/../lib/gcc/arm-eabi/4.7.0/../../../../arm-eabi/lib/thumb\libg.a(lib_a-wcrtomb.o)
 .data          0x02026300        0x0 c:/devkitpro/devkitarm/bin/../lib/gcc/arm-eabi/4.7.0/../../../../arm-eabi/lib/thumb\libg.a(lib_a-wcsrtombs.o)
 .data          0x02026300        0x0 c:/devkitpro/devkitarm/bin/../lib/gcc/arm-eabi/4.7.0/../../../../arm-eabi/lib/thumb\libg.a(lib_a-wctob.o)
 .data          0x02026300        0x4 c:/devkitpro/devkitarm/bin/../lib/gcc/arm-eabi/4.7.0/../../../../arm-eabi/lib/thumb\libg.a(lib_a-wctomb_r.o)
                0x02026300                __wctomb
 .data          0x02026304        0x0 c:/devkitpro/devkitarm/bin/../lib/gcc/arm-eabi/4.7.0/../../../../arm-eabi/lib/thumb\libg.a(lib_a-wsetup.o)
 .data          0x02026304        0x0 c:/devkitpro/devkitarm/bin/../lib/gcc/arm-eabi/4.7.0/../../../../arm-eabi/lib/thumb\libg.a(lib_a-div.o)
 .data          0x02026304        0x0 c:/devkitpro/devkitarm/bin/../lib/gcc/arm-eabi/4.7.0/../../../../arm-eabi/lib/thumb\libg.a(lib_a-dtoa.o)
 .data          0x02026304        0x0 c:/devkitpro/devkitarm/bin/../lib/gcc/arm-eabi/4.7.0/../../../../arm-eabi/lib/thumb\libg.a(lib_a-flags.o)
 .data          0x02026304        0x0 c:/devkitpro/devkitarm/bin/../lib/gcc/arm-eabi/4.7.0/../../../../arm-eabi/lib/thumb\libg.a(lib_a-fputwc.o)
 .data          0x02026304        0x0 c:/devkitpro/devkitarm/bin/../lib/gcc/arm-eabi/4.7.0/../../../../arm-eabi/lib/thumb\libg.a(lib_a-fvwrite.o)
 .data          0x02026304        0x0 c:/devkitpro/devkitarm/bin/../lib/gcc/arm-eabi/4.7.0/../../../../arm-eabi/lib/thumb\libg.a(lib_a-getenv_r.o)
 .data          0x02026304       0x40 c:/devkitpro/devkitarm/bin/../lib/gcc/arm-eabi/4.7.0/../../../../arm-eabi/lib/thumb\libg.a(lib_a-gettzinfo.o)
 .data          0x02026344        0x0 c:/devkitpro/devkitarm/bin/../lib/gcc/arm-eabi/4.7.0/../../../../arm-eabi/lib/thumb\libg.a(lib_a-iswspace.o)
 .data          0x02026344        0x0 c:/devkitpro/devkitarm/bin/../lib/gcc/arm-eabi/4.7.0/../../../../arm-eabi/lib/thumb\libg.a(lib_a-jp2uc.o)
 .data          0x02026344        0x0 c:/devkitpro/devkitarm/bin/../lib/gcc/arm-eabi/4.7.0/../../../../arm-eabi/lib/thumb\libg.a(lib_a-mbsnrtowcs.o)
 .data          0x02026344        0x0 c:/devkitpro/devkitarm/bin/../lib/gcc/arm-eabi/4.7.0/../../../../arm-eabi/lib/thumb\libg.a(lib_a-memchr-stub.o)
 .data          0x02026344        0x0 c:/devkitpro/devkitarm/bin/../lib/gcc/arm-eabi/4.7.0/../../../../arm-eabi/lib/thumb\libg.a(lib_a-mprec.o)
 .data          0x02026344        0x0 c:/devkitpro/devkitarm/bin/../lib/gcc/arm-eabi/4.7.0/../../../../arm-eabi/lib/thumb\libg.a(lib_a-reallocr.o)
 .data          0x02026344        0x0 c:/devkitpro/devkitarm/bin/../lib/gcc/arm-eabi/4.7.0/../../../../arm-eabi/lib/thumb\libg.a(lib_a-sccl.o)
 .data          0x02026344        0x0 c:/devkitpro/devkitarm/bin/../lib/gcc/arm-eabi/4.7.0/../../../../arm-eabi/lib/thumb\libg.a(lib_a-s_fpclassify.o)
 .data          0x02026344        0x0 c:/devkitpro/devkitarm/bin/../lib/gcc/arm-eabi/4.7.0/../../../../arm-eabi/lib/thumb\libg.a(lib_a-strtoll_r.o)
 .data          0x02026344        0x0 c:/devkitpro/devkitarm/bin/../lib/gcc/arm-eabi/4.7.0/../../../../arm-eabi/lib/thumb\libg.a(lib_a-strtoull_r.o)
 .data          0x02026344        0x0 c:/devkitpro/devkitarm/bin/../lib/gcc/arm-eabi/4.7.0/../../../../arm-eabi/lib/thumb\libg.a(lib_a-strtoul.o)
 .data          0x02026344        0x0 c:/devkitpro/devkitarm/bin/../lib/gcc/arm-eabi/4.7.0/../../../../arm-eabi/lib/thumb\libg.a(lib_a-svfiprintf.o)
 .data          0x02026344        0x0 c:/devkitpro/devkitarm/bin/../lib/gcc/arm-eabi/4.7.0/../../../../arm-eabi/lib/thumb\libg.a(lib_a-wbuf.o)
 .data          0x02026344        0x0 c:/devkitpro/devkitarm/bin/../lib/gcc/arm-eabi/4.7.0/../../../../arm-eabi/lib/thumb\libg.a(lib_a-wcsnrtombs.o)
 .data          0x02026344        0x0 c:/devkitpro/devkitarm/bin/../lib/gcc/arm-eabi/4.7.0/../../../../arm-eabi/lib/thumb\libg.a(lib_a-callocr.o)
 .data          0x02026344        0x4 c:/devkitpro/devkitarm/bin/../lib/gcc/arm-eabi/4.7.0/../../../../arm-eabi/lib/thumb\libg.a(lib_a-environ.o)
                0x02026344                environ
 .data          0x02026348        0x0 c:/devkitpro/devkitarm/bin/../lib/gcc/arm-eabi/4.7.0/../../../../arm-eabi/lib/thumb\libg.a(lib_a-envlock.o)
 .data          0x02026348       0x44 c:/devkitpro/devkitarm/bin/../lib/gcc/arm-eabi/4.7.0/../../../../arm-eabi/lib/thumb\libsysbase.a(iosupport.o)
                0x0202634c                devoptab_list
 .data          0x0202638c        0x0 c:/devkitpro/devkitarm/bin/../lib/gcc/arm-eabi/4.7.0/../../../../arm-eabi/lib/thumb\libsysbase.a(close.o)
 .data          0x0202638c        0x0 c:/devkitpro/devkitarm/bin/../lib/gcc/arm-eabi/4.7.0/../../../../arm-eabi/lib/thumb\libsysbase.a(fstat.o)
 .data          0x0202638c        0x0 c:/devkitpro/devkitarm/bin/../lib/gcc/arm-eabi/4.7.0/../../../../arm-eabi/lib/thumb\libsysbase.a(isatty.o)
 .data          0x0202638c        0x0 c:/devkitpro/devkitarm/bin/../lib/gcc/arm-eabi/4.7.0/../../../../arm-eabi/lib/thumb\libsysbase.a(lseek.o)
 .data          0x0202638c        0x0 c:/devkitpro/devkitarm/bin/../lib/gcc/arm-eabi/4.7.0/../../../../arm-eabi/lib/thumb\libsysbase.a(open.o)
 .data          0x0202638c        0x0 c:/devkitpro/devkitarm/bin/../lib/gcc/arm-eabi/4.7.0/../../../../arm-eabi/lib/thumb\libsysbase.a(read.o)
 .data          0x0202638c        0x0 c:/devkitpro/devkitarm/bin/../lib/gcc/arm-eabi/4.7.0/../../../../arm-eabi/lib/thumb\libsysbase.a(sbrk.o)
 .data          0x0202638c        0x0 c:/devkitpro/devkitarm/bin/../lib/gcc/arm-eabi/4.7.0/../../../../arm-eabi/lib/thumb\libsysbase.a(times.o)
 .data          0x0202638c        0x0 c:/devkitpro/devkitarm/bin/../lib/gcc/arm-eabi/4.7.0/../../../../arm-eabi/lib/thumb\libsysbase.a(write.o)
 .data          0x0202638c        0x0 c:/devkitpro/devkitarm/bin/../lib/gcc/arm-eabi/4.7.0/../../../../arm-eabi/lib/thumb\libsysbase.a(malloc_vars.o)
 .data          0x0202638c      0x400 c:/devkitpro/devkitarm/bin/../lib/gcc/arm-eabi/4.7.0/../../../../arm-eabi/lib/thumb\libsysbase.a(chdir.o)
 .data          0x0202678c        0x0 c:/devkitpro/devkitarm/bin/../lib/gcc/arm-eabi/4.7.0/../../../../arm-eabi/lib/thumb\libsysbase.a(build_argv.o)
 .data          0x0202678c        0x0 c:/devkitpro/devkitarm/bin/../lib/gcc/arm-eabi/4.7.0/../../../../arm-eabi/lib/thumb\libsysbase.a(syscall_support.o)
 .data          0x0202678c        0x0 c:/devkitpro/devkitarm/bin/../lib/gcc/arm-eabi/4.7.0/../../../../arm-eabi/lib/thumb\libsysbase.a(handle_manager.o)
 .data          0x0202678c        0x0 c:/devkitpro/devkitarm/bin/../lib/gcc/arm-eabi/4.7.0/thumb\libgcc.a(_arm_addsubdf3.o)
 .data          0x0202678c        0x0 c:/devkitpro/devkitarm/bin/../lib/gcc/arm-eabi/4.7.0/thumb\libgcc.a(_arm_muldivdf3.o)
 .data          0x0202678c        0x0 c:/devkitpro/devkitarm/bin/../lib/gcc/arm-eabi/4.7.0/thumb\libgcc.a(_arm_cmpdf2.o)
 .data          0x0202678c        0x0 c:/devkitpro/devkitarm/bin/../lib/gcc/arm-eabi/4.7.0/thumb\libgcc.a(_arm_fixdfsi.o)
 .data          0x0202678c        0x0 c:/devkitpro/devkitarm/bin/../lib/gcc/arm-eabi/4.7.0/thumb\libgcc.a(_aeabi_uldivmod.o)
 .data          0x0202678c        0x0 c:/devkitpro/devkitarm/bin/../lib/gcc/arm-eabi/4.7.0/thumb\libgcc.a(bpabi.o)
 .data          0x0202678c        0x0 c:/devkitpro/devkitarm/bin/../lib/gcc/arm-eabi/4.7.0/thumb\libgcc.a(_divdi3.o)
 .data          0x0202678c        0x0 c:/devkitpro/devkitarm/bin/../lib/gcc/arm-eabi/4.7.0/thumb\libgcc.a(_udivdi3.o)
 .data          0x0202678c        0x0 c:/devkitpro/devkitarm/bin/../lib/gcc/arm-eabi/4.7.0/thumb\libgcc.a(unwind-arm.o)
 .data          0x0202678c        0x0 c:/devkitpro/devkitarm/bin/../lib/gcc/arm-eabi/4.7.0/thumb\libgcc.a(libunwind.o)
 .data          0x0202678c        0x0 c:/devkitpro/devkitarm/bin/../lib/gcc/arm-eabi/4.7.0/thumb\libgcc.a(pr-support.o)
 .data          0x0202678c        0x0 c:/devkitpro/devkitarm/bin/../lib/gcc/arm-eabi/4.7.0/thumb\libgcc.a(_clzsi2.o)
 .data          0x0202678c        0x0 c:/devkitpro/devkitarm/bin/../lib/gcc/arm-eabi/4.7.0/../../../../arm-eabi/lib/thumb\libg.a(lib_a-abort.o)
 .data          0x0202678c        0x0 c:/devkitpro/devkitarm/bin/../lib/gcc/arm-eabi/4.7.0/../../../../arm-eabi/lib/thumb\libg.a(lib_a-errno.o)
 .data          0x0202678c        0x0 c:/devkitpro/devkitarm/bin/../lib/gcc/arm-eabi/4.7.0/../../../../arm-eabi/lib/thumb\libg.a(lib_a-signal.o)
 .data          0x0202678c        0x0 c:/devkitpro/devkitarm/bin/../lib/gcc/arm-eabi/4.7.0/../../../../arm-eabi/lib/thumb\libsysbase.a(getpid.o)
 .data          0x0202678c        0x0 c:/devkitpro/devkitarm/bin/../lib/gcc/arm-eabi/4.7.0/../../../../arm-eabi/lib/thumb\libsysbase.a(kill.o)
 .data          0x0202678c        0x0 c:/devkitpro/devkitarm/bin/../lib/gcc/arm-eabi/4.7.0/../../../../arm-eabi/lib/thumb\libsysbase.a(_exit.o)
 .data          0x0202678c        0x0 c:/devkitpro/devkitarm/bin/../lib/gcc/arm-eabi/4.7.0/thumb/crtend.o
 .data          0x0202678c        0x0 c:/devkitpro/devkitarm/bin/../lib/gcc/arm-eabi/4.7.0/thumb/crtn.o
 *(.data.*)
 *(.gnu.linkonce.d*)
                0x0202678c                . = ALIGN (0x4)
                0x0202678c                __data_end = ABSOLUTE (.)
                0x0202678c                __dtcm_lma = .
                0x0202678c                __bss_vma = .

.igot.plt       0x0202678c        0x0
 .igot.plt      0x00000000        0x0 c:/devkitpro/devkitarm/bin/../lib/gcc/arm-eabi/4.7.0/../../../../arm-eabi/lib/thumb/ds_arm9_crt0.o

.tm_clone_table
                0x0202678c        0x0
 .tm_clone_table
                0x0202678c        0x0 c:/devkitpro/devkitarm/bin/../lib/gcc/arm-eabi/4.7.0/thumb/crtbegin.o
 .tm_clone_table
                0x0202678c        0x0 c:/devkitpro/devkitarm/bin/../lib/gcc/arm-eabi/4.7.0/thumb/crtend.o

.dtcm           0x0b000000        0x0 load address 0x0202678c
 *(.dtcm)
 *(.dtcm.*)
                0x0b000000                . = ALIGN (0x4)
                0x0b000000                __dtcm_end = ABSOLUTE (.)
                0x0202678c                __itcm_lma = (__dtcm_lma + SIZEOF (.dtcm))

.itcm           0x01000100      0x194 load address 0x0202678c
 *(.itcm)
 .itcm          0x01000100       0xc8 c:/devkitPro/libnds/lib\libnds9.a(interrupts.o)
                0x01000100                irqTable
 .itcm          0x010001c8       0xcc c:/devkitPro/libnds/lib\libnds9.a(interruptDispatcher.o)
                0x010001c8                IntrMain
 *itcm.*(.text)
                0x01000294                . = ALIGN (0x4)
                0x01000294                __itcm_end = ABSOLUTE (.)
                0x02026920                __vectors_lma = (__itcm_lma + SIZEOF (.itcm))

.vectors        0x01000000        0x0 load address 0x02026920
 *(.vectors)
 *vectors.*(.text)
                0x01000000                . = ALIGN (0x4)
                0x01000000                __vectors_end = ABSOLUTE (.)

.sbss           0x0b000000        0x0
                0x0b000000                __sbss_start = ABSOLUTE (.)
                0x0b000000                __sbss_start__ = ABSOLUTE (.)
 *(.sbss)
                0x0b000000                . = ALIGN (0x4)
                0x0b000000                __sbss_end = ABSOLUTE (.)

.bss            0x0202678c     0x1f2c
                0x0202678c                __bss_start = ABSOLUTE (.)
                0x0202678c                __bss_start__ = ABSOLUTE (.)
 *(.dynbss)
 *(.gnu.linkonce.b*)
 *(.bss*)
 .bss           0x0202678c        0x0 c:/devkitpro/devkitarm/bin/../lib/gcc/arm-eabi/4.7.0/../../../../arm-eabi/lib/thumb/ds_arm9_crt0.o
 .bss           0x0202678c        0x0 c:/devkitpro/devkitarm/bin/../lib/gcc/arm-eabi/4.7.0/thumb/crti.o
 .bss           0x0202678c       0x1c c:/devkitpro/devkitarm/bin/../lib/gcc/arm-eabi/4.7.0/thumb/crtbegin.o
 .bss           0x020267a8        0x0 main.o
 .bss           0x020267a8        0x0 c:/devkitPro/libnds/lib\libfat.a(libfat.o)
 .bss           0x020267a8        0x0 c:/devkitPro/libnds/lib\libfat.a(partition.o)
 .bss           0x020267a8        0x4 c:/devkitPro/libnds/lib\libfat.a(cache.o)
 .bss           0x020267ac        0x0 c:/devkitPro/libnds/lib\libfat.a(directory.o)
 .bss           0x020267ac        0x0 c:/devkitPro/libnds/lib\libfat.a(disc.o)
 .bss           0x020267ac        0x0 c:/devkitPro/libnds/lib\libfat.a(fatdir.o)
 .bss           0x020267ac        0x0 c:/devkitPro/libnds/lib\libfat.a(fatfile.o)
 .bss           0x020267ac        0x0 c:/devkitPro/libnds/lib\libfat.a(file_allocation_table.o)
 .bss           0x020267ac        0x0 c:/devkitPro/libnds/lib\libfat.a(filetime.o)
 .bss           0x020267ac        0x0 c:/devkitPro/libnds/lib\libfat.a(lock.o)
 .bss           0x020267ac        0x0 c:/devkitPro/libnds/lib\libnds9.a(console.o)
 .bss           0x020267ac        0x6 c:/devkitPro/libnds/lib\libnds9.a(keys.o)
 .bss           0x020267b2        0x0 c:/devkitPro/libnds/lib\libnds9.a(dldi.o)
 .bss           0x020267b2        0x0 c:/devkitPro/libnds/lib\libnds9.a(dsi_sd.o)
 .bss           0x020267b2        0x0 c:/devkitPro/libnds/lib\libnds9.a(initSystem.o)
 *fill*         0x020267b2        0x2 00
 .bss           0x020267b4        0x8 c:/devkitPro/libnds/lib\libnds9.a(fifosystem.o)
                0x020267b8                processing
 .bss           0x020267bc        0x0 c:/devkitPro/libnds/lib\libnds9.a(interrupts.o)
 .bss           0x020267bc        0x0 c:/devkitPro/libnds/lib\libnds9.a(libnds_exit.o)
 .bss           0x020267bc        0x0 c:/devkitPro/libnds/lib\libnds9.a(dcache.o)
 .bss           0x020267bc        0x0 c:/devkitPro/libnds/lib\libnds9.a(dldi_stub.o)
 .bss           0x020267bc        0x0 c:/devkitPro/libnds/lib\libnds9.a(mpu_setup.o)
 .bss           0x020267bc        0x0 c:/devkitPro/libnds/lib\libnds9.a(biosCalls.o)
 .bss           0x020267bc        0x0 c:/devkitPro/libnds/lib\libnds9.a(debugprint.o)
 .bss           0x020267bc        0x0 c:/devkitPro/libnds/lib\libnds9.a(interruptDispatcher.o)
 .bss           0x020267bc        0x0 c:/devkitPro/libnds/lib\libnds9.a(swiSoftReset.o)
 .bss           0x020267bc        0x0 c:/devkitPro/libnds/lib\libnds9.a(default_font.bin.o)
 .bss           0x020267bc        0x0 c:/devkitPro/libnds/lib\libnds9.a(background.o)
 .bss           0x020267bc        0x4 c:/devkitPro/libnds/lib\libnds9.a(system.o)
 .bss           0x020267c0        0x0 c:/devkitPro/libnds/lib\libnds9.a(trig.o)
 .bss           0x020267c0        0x0 c:/devkitPro/libnds/lib\libnds9.a(video.o)
 .bss           0x020267c0        0x0 c:/devkitpro/devkitarm/bin/../lib/gcc/arm-eabi/4.7.0/thumb\libgcc.a(_udivsi3.o)
 .bss           0x020267c0        0x0 c:/devkitpro/devkitarm/bin/../lib/gcc/arm-eabi/4.7.0/thumb\libgcc.a(_divsi3.o)
 .bss           0x020267c0        0x0 c:/devkitpro/devkitarm/bin/../lib/gcc/arm-eabi/4.7.0/thumb\libgcc.a(_dvmd_tls.o)
 .bss           0x020267c0        0x0 c:/devkitpro/devkitarm/bin/../lib/gcc/arm-eabi/4.7.0/thumb\libgcc.a(_muldi3.o)
 .bss           0x020267c0        0x0 c:/devkitpro/devkitarm/bin/../lib/gcc/arm-eabi/4.7.0/../../../../arm-eabi/lib/thumb\libg.a(lib_a-bsearch.o)
 .bss           0x020267c0        0x0 c:/devkitpro/devkitarm/bin/../lib/gcc/arm-eabi/4.7.0/../../../../arm-eabi/lib/thumb\libg.a(lib_a-ctype_.o)
 .bss           0x020267c0        0x0 c:/devkitpro/devkitarm/bin/../lib/gcc/arm-eabi/4.7.0/../../../../arm-eabi/lib/thumb\libg.a(lib_a-fclose.o)
 .bss           0x020267c0        0x0 c:/devkitpro/devkitarm/bin/../lib/gcc/arm-eabi/4.7.0/../../../../arm-eabi/lib/thumb\libg.a(lib_a-fflush.o)
 .bss           0x020267c0        0x0 c:/devkitpro/devkitarm/bin/../lib/gcc/arm-eabi/4.7.0/../../../../arm-eabi/lib/thumb\libg.a(lib_a-findfp.o)
 .bss           0x020267c0        0x0 c:/devkitpro/devkitarm/bin/../lib/gcc/arm-eabi/4.7.0/../../../../arm-eabi/lib/thumb\libg.a(lib_a-fopen.o)
 .bss           0x020267c0        0x0 c:/devkitpro/devkitarm/bin/../lib/gcc/arm-eabi/4.7.0/../../../../arm-eabi/lib/thumb\libg.a(lib_a-freer.o)
 .bss           0x020267c0        0x0 c:/devkitpro/devkitarm/bin/../lib/gcc/arm-eabi/4.7.0/../../../../arm-eabi/lib/thumb\libg.a(lib_a-fseek.o)
 .bss           0x020267c0        0x0 c:/devkitpro/devkitarm/bin/../lib/gcc/arm-eabi/4.7.0/../../../../arm-eabi/lib/thumb\libg.a(lib_a-fwalk.o)
 .bss           0x020267c0        0x0 c:/devkitpro/devkitarm/bin/../lib/gcc/arm-eabi/4.7.0/../../../../arm-eabi/lib/thumb\libg.a(lib_a-fwrite.o)
 .bss           0x020267c0        0x0 c:/devkitpro/devkitarm/bin/../lib/gcc/arm-eabi/4.7.0/../../../../arm-eabi/lib/thumb\libg.a(lib_a-impure.o)
 .bss           0x020267c0        0x0 c:/devkitpro/devkitarm/bin/../lib/gcc/arm-eabi/4.7.0/../../../../arm-eabi/lib/thumb\libg.a(lib_a-init.o)
 .bss           0x020267c0        0x0 c:/devkitpro/devkitarm/bin/../lib/gcc/arm-eabi/4.7.0/../../../../arm-eabi/lib/thumb\libg.a(lib_a-iprintf.o)
 .bss           0x020267c0        0x0 c:/devkitpro/devkitarm/bin/../lib/gcc/arm-eabi/4.7.0/../../../../arm-eabi/lib/thumb\libg.a(lib_a-lcltime_r.o)
 .bss           0x020267c0      0x2b8 c:/devkitpro/devkitarm/bin/../lib/gcc/arm-eabi/4.7.0/../../../../arm-eabi/lib/thumb\libg.a(lib_a-locale.o)
                0x02026a6c                _PathLocale
                0x02026a70                __mlocale_changed
                0x02026a74                __nlocale_changed
 .bss           0x02026a78        0x0 c:/devkitpro/devkitarm/bin/../lib/gcc/arm-eabi/4.7.0/../../../../arm-eabi/lib/thumb\libg.a(lib_a-makebuf.o)
 .bss           0x02026a78        0x0 c:/devkitpro/devkitarm/bin/../lib/gcc/arm-eabi/4.7.0/../../../../arm-eabi/lib/thumb\libg.a(lib_a-malloc.o)
 .bss           0x02026a78       0x34 c:/devkitpro/devkitarm/bin/../lib/gcc/arm-eabi/4.7.0/../../../../arm-eabi/lib/thumb\libg.a(lib_a-mallocr.o)
                0x02026a78                __malloc_top_pad
                0x02026a7c                __malloc_current_mallinfo
                0x02026aa4                __malloc_max_sbrked_mem
                0x02026aa8                __malloc_max_total_mem
 .bss           0x02026aac        0x0 c:/devkitpro/devkitarm/bin/../lib/gcc/arm-eabi/4.7.0/../../../../arm-eabi/lib/thumb\libg.a(lib_a-mbrtowc.o)
 .bss           0x02026aac        0x0 c:/devkitpro/devkitarm/bin/../lib/gcc/arm-eabi/4.7.0/../../../../arm-eabi/lib/thumb\libg.a(lib_a-mbsrtowcs.o)
 .bss           0x02026aac        0x0 c:/devkitpro/devkitarm/bin/../lib/gcc/arm-eabi/4.7.0/../../../../arm-eabi/lib/thumb\libg.a(lib_a-mbtowc_r.o)
 .bss           0x02026aac        0x0 c:/devkitpro/devkitarm/bin/../lib/gcc/arm-eabi/4.7.0/../../../../arm-eabi/lib/thumb\libg.a(lib_a-memcmp.o)
 .bss           0x02026aac        0x0 c:/devkitpro/devkitarm/bin/../lib/gcc/arm-eabi/4.7.0/../../../../arm-eabi/lib/thumb\libg.a(lib_a-memcpy-stub.o)
 .bss           0x02026aac        0x0 c:/devkitpro/devkitarm/bin/../lib/gcc/arm-eabi/4.7.0/../../../../arm-eabi/lib/thumb\libg.a(lib_a-memmove.o)
 .bss           0x02026aac        0x0 c:/devkitpro/devkitarm/bin/../lib/gcc/arm-eabi/4.7.0/../../../../arm-eabi/lib/thumb\libg.a(lib_a-memset.o)
 .bss           0x02026aac        0x0 c:/devkitpro/devkitarm/bin/../lib/gcc/arm-eabi/4.7.0/../../../../arm-eabi/lib/thumb\libg.a(lib_a-mktime.o)
 .bss           0x02026aac        0x0 c:/devkitpro/devkitarm/bin/../lib/gcc/arm-eabi/4.7.0/../../../../arm-eabi/lib/thumb\libg.a(lib_a-mktm_r.o)
 .bss           0x02026aac        0x0 c:/devkitpro/devkitarm/bin/../lib/gcc/arm-eabi/4.7.0/../../../../arm-eabi/lib/thumb\libg.a(lib_a-mlock.o)
 .bss           0x02026aac        0x0 c:/devkitpro/devkitarm/bin/../lib/gcc/arm-eabi/4.7.0/../../../../arm-eabi/lib/thumb\libg.a(lib_a-refill.o)
 .bss           0x02026aac        0x0 c:/devkitpro/devkitarm/bin/../lib/gcc/arm-eabi/4.7.0/../../../../arm-eabi/lib/thumb\libg.a(lib_a-setvbuf.o)
 .bss           0x02026aac        0x0 c:/devkitpro/devkitarm/bin/../lib/gcc/arm-eabi/4.7.0/../../../../arm-eabi/lib/thumb\libg.a(lib_a-siscanf.o)
 .bss           0x02026aac        0x0 c:/devkitpro/devkitarm/bin/../lib/gcc/arm-eabi/4.7.0/../../../../arm-eabi/lib/thumb\libg.a(lib_a-sprintf.o)
 .bss           0x02026aac        0x0 c:/devkitpro/devkitarm/bin/../lib/gcc/arm-eabi/4.7.0/../../../../arm-eabi/lib/thumb\libg.a(lib_a-stdio.o)
 .bss           0x02026aac        0x0 c:/devkitpro/devkitarm/bin/../lib/gcc/arm-eabi/4.7.0/../../../../arm-eabi/lib/thumb\libg.a(lib_a-strcasecmp.o)
 .bss           0x02026aac        0x0 c:/devkitpro/devkitarm/bin/../lib/gcc/arm-eabi/4.7.0/../../../../arm-eabi/lib/thumb\libg.a(lib_a-strcat.o)
 .bss           0x02026aac        0x0 c:/devkitpro/devkitarm/bin/../lib/gcc/arm-eabi/4.7.0/../../../../arm-eabi/lib/thumb\libg.a(lib_a-strchr.o)
 .bss           0x02026aac        0x0 c:/devkitpro/devkitarm/bin/../lib/gcc/arm-eabi/4.7.0/../../../../arm-eabi/lib/thumb\libg.a(lib_a-strcmp.o)
 .bss           0x02026aac        0x0 c:/devkitpro/devkitarm/bin/../lib/gcc/arm-eabi/4.7.0/../../../../arm-eabi/lib/thumb\libg.a(lib_a-strcpy.o)
 .bss           0x02026aac        0x0 c:/devkitpro/devkitarm/bin/../lib/gcc/arm-eabi/4.7.0/../../../../arm-eabi/lib/thumb\libg.a(lib_a-strlcpy.o)
 .bss           0x02026aac        0x0 c:/devkitpro/devkitarm/bin/../lib/gcc/arm-eabi/4.7.0/../../../../arm-eabi/lib/thumb\libg.a(lib_a-strlen.o)
 .bss           0x02026aac        0x0 c:/devkitpro/devkitarm/bin/../lib/gcc/arm-eabi/4.7.0/../../../../arm-eabi/lib/thumb\libg.a(lib_a-strncasecmp.o)
 .bss           0x02026aac        0x0 c:/devkitpro/devkitarm/bin/../lib/gcc/arm-eabi/4.7.0/../../../../arm-eabi/lib/thumb\libg.a(lib_a-strncmp.o)
 .bss           0x02026aac        0x0 c:/devkitpro/devkitarm/bin/../lib/gcc/arm-eabi/4.7.0/../../../../arm-eabi/lib/thumb\libg.a(lib_a-strncpy.o)
 .bss           0x02026aac        0x0 c:/devkitpro/devkitarm/bin/../lib/gcc/arm-eabi/4.7.0/../../../../arm-eabi/lib/thumb\libg.a(lib_a-strnlen.o)
 .bss           0x02026aac        0x0 c:/devkitpro/devkitarm/bin/../lib/gcc/arm-eabi/4.7.0/../../../../arm-eabi/lib/thumb\libg.a(lib_a-strpbrk.o)
 .bss           0x02026aac        0x0 c:/devkitpro/devkitarm/bin/../lib/gcc/arm-eabi/4.7.0/../../../../arm-eabi/lib/thumb\libg.a(lib_a-strrchr.o)
 .bss           0x02026aac        0x0 c:/devkitpro/devkitarm/bin/../lib/gcc/arm-eabi/4.7.0/../../../../arm-eabi/lib/thumb\libg.a(lib_a-strtol.o)
 .bss           0x02026aac        0x0 c:/devkitpro/devkitarm/bin/../lib/gcc/arm-eabi/4.7.0/../../../../arm-eabi/lib/thumb\libg.a(lib_a-svfiscanf.o)
 .bss           0x02026aac        0x0 c:/devkitpro/devkitarm/bin/../lib/gcc/arm-eabi/4.7.0/../../../../arm-eabi/lib/thumb\libg.a(lib_a-svfprintf.o)
 .bss           0x02026aac        0x0 c:/devkitpro/devkitarm/bin/../lib/gcc/arm-eabi/4.7.0/../../../../arm-eabi/lib/thumb\libg.a(lib_a-sysclose.o)
 .bss           0x02026aac        0x0 c:/devkitpro/devkitarm/bin/../lib/gcc/arm-eabi/4.7.0/../../../../arm-eabi/lib/thumb\libg.a(lib_a-syslseek.o)
 .bss           0x02026aac        0x0 c:/devkitpro/devkitarm/bin/../lib/gcc/arm-eabi/4.7.0/../../../../arm-eabi/lib/thumb\libg.a(lib_a-sysopen.o)
 .bss           0x02026aac        0x0 c:/devkitpro/devkitarm/bin/../lib/gcc/arm-eabi/4.7.0/../../../../arm-eabi/lib/thumb\libg.a(lib_a-sysread.o)
 .bss           0x02026aac        0x0 c:/devkitpro/devkitarm/bin/../lib/gcc/arm-eabi/4.7.0/../../../../arm-eabi/lib/thumb\libg.a(lib_a-time.o)
 .bss           0x02026aac        0x0 c:/devkitpro/devkitarm/bin/../lib/gcc/arm-eabi/4.7.0/../../../../arm-eabi/lib/thumb\libg.a(lib_a-towlower.o)
 .bss           0x02026aac        0x0 c:/devkitpro/devkitarm/bin/../lib/gcc/arm-eabi/4.7.0/../../../../arm-eabi/lib/thumb\libg.a(lib_a-towupper.o)
 .bss           0x02026aac        0x0 c:/devkitpro/devkitarm/bin/../lib/gcc/arm-eabi/4.7.0/../../../../arm-eabi/lib/thumb\libg.a(lib_a-tzlock.o)
 .bss           0x02026aac        0x8 c:/devkitpro/devkitarm/bin/../lib/gcc/arm-eabi/4.7.0/../../../../arm-eabi/lib/thumb\libg.a(lib_a-tzvars.o)
                0x02026aac                _timezone
                0x02026ab0                _daylight
 .bss           0x02026ab4        0x0 c:/devkitpro/devkitarm/bin/../lib/gcc/arm-eabi/4.7.0/../../../../arm-eabi/lib/thumb\libg.a(lib_a-ungetc.o)
 .bss           0x02026ab4        0x0 c:/devkitpro/devkitarm/bin/../lib/gcc/arm-eabi/4.7.0/../../../../arm-eabi/lib/thumb\libg.a(lib_a-vfiprintf.o)
 .bss           0x02026ab4        0x0 c:/devkitpro/devkitarm/bin/../lib/gcc/arm-eabi/4.7.0/../../../../arm-eabi/lib/thumb\libg.a(lib_a-wcrtomb.o)
 .bss           0x02026ab4        0x0 c:/devkitpro/devkitarm/bin/../lib/gcc/arm-eabi/4.7.0/../../../../arm-eabi/lib/thumb\libg.a(lib_a-wcsrtombs.o)
 .bss           0x02026ab4        0x0 c:/devkitpro/devkitarm/bin/../lib/gcc/arm-eabi/4.7.0/../../../../arm-eabi/lib/thumb\libg.a(lib_a-wctob.o)
 .bss           0x02026ab4        0x0 c:/devkitpro/devkitarm/bin/../lib/gcc/arm-eabi/4.7.0/../../../../arm-eabi/lib/thumb\libg.a(lib_a-wctomb_r.o)
 .bss           0x02026ab4        0x0 c:/devkitpro/devkitarm/bin/../lib/gcc/arm-eabi/4.7.0/../../../../arm-eabi/lib/thumb\libg.a(lib_a-wsetup.o)
 .bss           0x02026ab4        0x0 c:/devkitpro/devkitarm/bin/../lib/gcc/arm-eabi/4.7.0/../../../../arm-eabi/lib/thumb\libg.a(lib_a-div.o)
 .bss           0x02026ab4        0x0 c:/devkitpro/devkitarm/bin/../lib/gcc/arm-eabi/4.7.0/../../../../arm-eabi/lib/thumb\libg.a(lib_a-dtoa.o)
 .bss           0x02026ab4        0x0 c:/devkitpro/devkitarm/bin/../lib/gcc/arm-eabi/4.7.0/../../../../arm-eabi/lib/thumb\libg.a(lib_a-flags.o)
 .bss           0x02026ab4        0x0 c:/devkitpro/devkitarm/bin/../lib/gcc/arm-eabi/4.7.0/../../../../arm-eabi/lib/thumb\libg.a(lib_a-fputwc.o)
 .bss           0x02026ab4        0x0 c:/devkitpro/devkitarm/bin/../lib/gcc/arm-eabi/4.7.0/../../../../arm-eabi/lib/thumb\libg.a(lib_a-fvwrite.o)
 .bss           0x02026ab4        0x0 c:/devkitpro/devkitarm/bin/../lib/gcc/arm-eabi/4.7.0/../../../../arm-eabi/lib/thumb\libg.a(lib_a-getenv_r.o)
 .bss           0x02026ab4        0x0 c:/devkitpro/devkitarm/bin/../lib/gcc/arm-eabi/4.7.0/../../../../arm-eabi/lib/thumb\libg.a(lib_a-gettzinfo.o)
 .bss           0x02026ab4        0x0 c:/devkitpro/devkitarm/bin/../lib/gcc/arm-eabi/4.7.0/../../../../arm-eabi/lib/thumb\libg.a(lib_a-iswspace.o)
 .bss           0x02026ab4        0x0 c:/devkitpro/devkitarm/bin/../lib/gcc/arm-eabi/4.7.0/../../../../arm-eabi/lib/thumb\libg.a(lib_a-jp2uc.o)
 .bss           0x02026ab4        0x0 c:/devkitpro/devkitarm/bin/../lib/gcc/arm-eabi/4.7.0/../../../../arm-eabi/lib/thumb\libg.a(lib_a-mbsnrtowcs.o)
 .bss           0x02026ab4        0x0 c:/devkitpro/devkitarm/bin/../lib/gcc/arm-eabi/4.7.0/../../../../arm-eabi/lib/thumb\libg.a(lib_a-memchr-stub.o)
 .bss           0x02026ab4        0x0 c:/devkitpro/devkitarm/bin/../lib/gcc/arm-eabi/4.7.0/../../../../arm-eabi/lib/thumb\libg.a(lib_a-mprec.o)
 .bss           0x02026ab4        0x0 c:/devkitpro/devkitarm/bin/../lib/gcc/arm-eabi/4.7.0/../../../../arm-eabi/lib/thumb\libg.a(lib_a-reallocr.o)
 .bss           0x02026ab4        0x0 c:/devkitpro/devkitarm/bin/../lib/gcc/arm-eabi/4.7.0/../../../../arm-eabi/lib/thumb\libg.a(lib_a-sccl.o)
 .bss           0x02026ab4        0x0 c:/devkitpro/devkitarm/bin/../lib/gcc/arm-eabi/4.7.0/../../../../arm-eabi/lib/thumb\libg.a(lib_a-s_fpclassify.o)
 .bss           0x02026ab4        0x0 c:/devkitpro/devkitarm/bin/../lib/gcc/arm-eabi/4.7.0/../../../../arm-eabi/lib/thumb\libg.a(lib_a-strtoll_r.o)
 .bss           0x02026ab4        0x0 c:/devkitpro/devkitarm/bin/../lib/gcc/arm-eabi/4.7.0/../../../../arm-eabi/lib/thumb\libg.a(lib_a-strtoull_r.o)
 .bss           0x02026ab4        0x0 c:/devkitpro/devkitarm/bin/../lib/gcc/arm-eabi/4.7.0/../../../../arm-eabi/lib/thumb\libg.a(lib_a-strtoul.o)
 .bss           0x02026ab4        0x0 c:/devkitpro/devkitarm/bin/../lib/gcc/arm-eabi/4.7.0/../../../../arm-eabi/lib/thumb\libg.a(lib_a-svfiprintf.o)
 .bss           0x02026ab4        0x0 c:/devkitpro/devkitarm/bin/../lib/gcc/arm-eabi/4.7.0/../../../../arm-eabi/lib/thumb\libg.a(lib_a-wbuf.o)
 .bss           0x02026ab4        0x0 c:/devkitpro/devkitarm/bin/../lib/gcc/arm-eabi/4.7.0/../../../../arm-eabi/lib/thumb\libg.a(lib_a-wcsnrtombs.o)
 .bss           0x02026ab4        0x0 c:/devkitpro/devkitarm/bin/../lib/gcc/arm-eabi/4.7.0/../../../../arm-eabi/lib/thumb\libg.a(lib_a-callocr.o)
 .bss           0x02026ab4        0x4 c:/devkitpro/devkitarm/bin/../lib/gcc/arm-eabi/4.7.0/../../../../arm-eabi/lib/thumb\libg.a(lib_a-environ.o)
 .bss           0x02026ab8        0x0 c:/devkitpro/devkitarm/bin/../lib/gcc/arm-eabi/4.7.0/../../../../arm-eabi/lib/thumb\libg.a(lib_a-envlock.o)
 .bss           0x02026ab8        0x0 c:/devkitpro/devkitarm/bin/../lib/gcc/arm-eabi/4.7.0/../../../../arm-eabi/lib/thumb\libsysbase.a(iosupport.o)
 .bss           0x02026ab8        0x0 c:/devkitpro/devkitarm/bin/../lib/gcc/arm-eabi/4.7.0/../../../../arm-eabi/lib/thumb\libsysbase.a(close.o)
 .bss           0x02026ab8        0x0 c:/devkitpro/devkitarm/bin/../lib/gcc/arm-eabi/4.7.0/../../../../arm-eabi/lib/thumb\libsysbase.a(fstat.o)
 .bss           0x02026ab8        0x0 c:/devkitpro/devkitarm/bin/../lib/gcc/arm-eabi/4.7.0/../../../../arm-eabi/lib/thumb\libsysbase.a(isatty.o)
 .bss           0x02026ab8        0x0 c:/devkitpro/devkitarm/bin/../lib/gcc/arm-eabi/4.7.0/../../../../arm-eabi/lib/thumb\libsysbase.a(lseek.o)
 .bss           0x02026ab8        0x0 c:/devkitpro/devkitarm/bin/../lib/gcc/arm-eabi/4.7.0/../../../../arm-eabi/lib/thumb\libsysbase.a(open.o)
 .bss           0x02026ab8        0x0 c:/devkitpro/devkitarm/bin/../lib/gcc/arm-eabi/4.7.0/../../../../arm-eabi/lib/thumb\libsysbase.a(read.o)
 .bss           0x02026ab8        0x4 c:/devkitpro/devkitarm/bin/../lib/gcc/arm-eabi/4.7.0/../../../../arm-eabi/lib/thumb\libsysbase.a(sbrk.o)
 .bss           0x02026abc        0x0 c:/devkitpro/devkitarm/bin/../lib/gcc/arm-eabi/4.7.0/../../../../arm-eabi/lib/thumb\libsysbase.a(times.o)
 .bss           0x02026abc        0x0 c:/devkitpro/devkitarm/bin/../lib/gcc/arm-eabi/4.7.0/../../../../arm-eabi/lib/thumb\libsysbase.a(write.o)
 .bss           0x02026abc        0x8 c:/devkitpro/devkitarm/bin/../lib/gcc/arm-eabi/4.7.0/../../../../arm-eabi/lib/thumb\libsysbase.a(malloc_vars.o)
                0x02026abc                fake_heap_start
                0x02026ac0                fake_heap_end
 .bss           0x02026ac4        0x0 c:/devkitpro/devkitarm/bin/../lib/gcc/arm-eabi/4.7.0/../../../../arm-eabi/lib/thumb\libsysbase.a(chdir.o)
 .bss           0x02026ac4        0x0 c:/devkitpro/devkitarm/bin/../lib/gcc/arm-eabi/4.7.0/../../../../arm-eabi/lib/thumb\libsysbase.a(build_argv.o)
 .bss           0x02026ac4        0x8 c:/devkitpro/devkitarm/bin/../lib/gcc/arm-eabi/4.7.0/../../../../arm-eabi/lib/thumb\libsysbase.a(syscall_support.o)
                0x02026ac4                __syscalls
 .bss           0x02026acc     0x1000 c:/devkitpro/devkitarm/bin/../lib/gcc/arm-eabi/4.7.0/../../../../arm-eabi/lib/thumb\libsysbase.a(handle_manager.o)
 .bss           0x02027acc        0x0 c:/devkitpro/devkitarm/bin/../lib/gcc/arm-eabi/4.7.0/thumb\libgcc.a(_arm_addsubdf3.o)
 .bss           0x02027acc        0x0 c:/devkitpro/devkitarm/bin/../lib/gcc/arm-eabi/4.7.0/thumb\libgcc.a(_arm_muldivdf3.o)
 .bss           0x02027acc        0x0 c:/devkitpro/devkitarm/bin/../lib/gcc/arm-eabi/4.7.0/thumb\libgcc.a(_arm_cmpdf2.o)
 .bss           0x02027acc        0x0 c:/devkitpro/devkitarm/bin/../lib/gcc/arm-eabi/4.7.0/thumb\libgcc.a(_arm_fixdfsi.o)
 .bss           0x02027acc        0x0 c:/devkitpro/devkitarm/bin/../lib/gcc/arm-eabi/4.7.0/thumb\libgcc.a(_aeabi_uldivmod.o)
 .bss           0x02027acc        0x0 c:/devkitpro/devkitarm/bin/../lib/gcc/arm-eabi/4.7.0/thumb\libgcc.a(bpabi.o)
 .bss           0x02027acc        0x0 c:/devkitpro/devkitarm/bin/../lib/gcc/arm-eabi/4.7.0/thumb\libgcc.a(_divdi3.o)
 .bss           0x02027acc        0x0 c:/devkitpro/devkitarm/bin/../lib/gcc/arm-eabi/4.7.0/thumb\libgcc.a(_udivdi3.o)
 .bss           0x02027acc        0x0 c:/devkitpro/devkitarm/bin/../lib/gcc/arm-eabi/4.7.0/thumb\libgcc.a(unwind-arm.o)
 .bss           0x02027acc        0x0 c:/devkitpro/devkitarm/bin/../lib/gcc/arm-eabi/4.7.0/thumb\libgcc.a(libunwind.o)
 .bss           0x02027acc        0x0 c:/devkitpro/devkitarm/bin/../lib/gcc/arm-eabi/4.7.0/thumb\libgcc.a(pr-support.o)
 .bss           0x02027acc        0x0 c:/devkitpro/devkitarm/bin/../lib/gcc/arm-eabi/4.7.0/thumb\libgcc.a(_clzsi2.o)
 .bss           0x02027acc        0x0 c:/devkitpro/devkitarm/bin/../lib/gcc/arm-eabi/4.7.0/../../../../arm-eabi/lib/thumb\libg.a(lib_a-abort.o)
 .bss           0x02027acc        0x0 c:/devkitpro/devkitarm/bin/../lib/gcc/arm-eabi/4.7.0/../../../../arm-eabi/lib/thumb\libg.a(lib_a-errno.o)
 .bss           0x02027acc        0x0 c:/devkitpro/devkitarm/bin/../lib/gcc/arm-eabi/4.7.0/../../../../arm-eabi/lib/thumb\libg.a(lib_a-signal.o)
 .bss           0x02027acc        0x0 c:/devkitpro/devkitarm/bin/../lib/gcc/arm-eabi/4.7.0/../../../../arm-eabi/lib/thumb\libsysbase.a(getpid.o)
 .bss           0x02027acc        0x0 c:/devkitpro/devkitarm/bin/../lib/gcc/arm-eabi/4.7.0/../../../../arm-eabi/lib/thumb\libsysbase.a(kill.o)
 .bss           0x02027acc        0x0 c:/devkitpro/devkitarm/bin/../lib/gcc/arm-eabi/4.7.0/../../../../arm-eabi/lib/thumb\libsysbase.a(_exit.o)
 .bss           0x02027acc        0x0 c:/devkitpro/devkitarm/bin/../lib/gcc/arm-eabi/4.7.0/thumb/crtend.o
 .bss           0x02027acc        0x0 c:/devkitpro/devkitarm/bin/../lib/gcc/arm-eabi/4.7.0/thumb/crtn.o
 *(COMMON)
 COMMON         0x02027acc       0x5c c:/devkitPro/libnds/lib\libnds9.a(console.o)
                0x02027acc                currentCopy
 COMMON         0x02027b28        0x1 c:/devkitPro/libnds/lib\libnds9.a(initSystem.o)
                0x02027b28                __dsimode
 *fill*         0x02027b29        0x3 00
 COMMON         0x02027b2c      0xa40 c:/devkitPro/libnds/lib\libnds9.a(fifosystem.o)
                0x02027b2c                fifo_datamsg_data
                0x02027b6c                fifo_buffer
                0x0202836c                fifo_value32_func
                0x020283ac                fifo_address_func
                0x020283ec                fifo_value32_data
                0x0202842c                fifo_value32_queue
                0x0202846c                fifo_data_queue
                0x020284ac                fifo_address_data
                0x020284ec                fifo_datamsg_func
                0x0202852c                fifo_address_queue
 COMMON         0x0202856c      0x148 c:/devkitPro/libnds/lib\libnds9.a(background.o)
                0x0202856c                bgState
                0x020286ac                bgIsTextLut
 COMMON         0x020286b4        0x4 c:/devkitpro/devkitarm/bin/../lib/gcc/arm-eabi/4.7.0/../../../../arm-eabi/lib/thumb\libsysbase.a(times.o)
                0x020286b4                punixTime
                0x020286b8                . = ALIGN (0x4)
                0x020286b8                __bss_end__ = ABSOLUTE (.)
                0x020286b8                __end__ = ABSOLUTE (.)

.stab
 *(.stab)

.stabstr
 *(.stabstr)

.stab.excl
 *(.stab.excl)

.stab.exclstr
 *(.stab.exclstr)

.stab.index
 *(.stab.index)

.stab.indexstr
 *(.stab.indexstr)

.comment        0x00000000       0x44
 *(.comment)
 .comment       0x00000000       0x22 c:/devkitpro/devkitarm/bin/../lib/gcc/arm-eabi/4.7.0/thumb/crtbegin.o
                                 0x23 (size before relaxing)
 .comment       0x00000000       0x23 main.o
 .comment       0x00000022       0x22 c:/devkitPro/libnds/lib\libfat.a(libfat.o)
                                 0x23 (size before relaxing)
 .comment       0x00000000       0x23 c:/devkitPro/libnds/lib\libfat.a(partition.o)
 .comment       0x00000000       0x23 c:/devkitPro/libnds/lib\libfat.a(cache.o)
 .comment       0x00000000       0x23 c:/devkitPro/libnds/lib\libfat.a(directory.o)
 .comment       0x00000000       0x23 c:/devkitPro/libnds/lib\libfat.a(disc.o)
 .comment       0x00000000       0x23 c:/devkitPro/libnds/lib\libfat.a(fatdir.o)
 .comment       0x00000000       0x23 c:/devkitPro/libnds/lib\libfat.a(fatfile.o)
 .comment       0x00000000       0x23 c:/devkitPro/libnds/lib\libfat.a(file_allocation_table.o)
 .comment       0x00000000       0x23 c:/devkitPro/libnds/lib\libfat.a(filetime.o)
 .comment       0x00000000       0x23 c:/devkitPro/libnds/lib\libfat.a(lock.o)
 .comment       0x00000000       0x23 c:/devkitPro/libnds/lib\libnds9.a(console.o)
 .comment       0x00000000       0x23 c:/devkitPro/libnds/lib\libnds9.a(keys.o)
 .comment       0x00000000       0x23 c:/devkitPro/libnds/lib\libnds9.a(dldi.o)
 .comment       0x00000000       0x23 c:/devkitPro/libnds/lib\libnds9.a(dsi_sd.o)
 .comment       0x00000000       0x23 c:/devkitPro/libnds/lib\libnds9.a(initSystem.o)
 .comment       0x00000000       0x23 c:/devkitPro/libnds/lib\libnds9.a(fifosystem.o)
 .comment       0x00000000       0x23 c:/devkitPro/libnds/lib\libnds9.a(interrupts.o)
 .comment       0x00000000       0x23 c:/devkitPro/libnds/lib\libnds9.a(libnds_exit.o)
 .comment       0x00000000       0x23 c:/devkitPro/libnds/lib\libnds9.a(background.o)
 .comment       0x00000000       0x23 c:/devkitPro/libnds/lib\libnds9.a(system.o)
 .comment       0x00000000       0x23 c:/devkitPro/libnds/lib\libnds9.a(trig.o)
 .comment       0x00000000       0x23 c:/devkitPro/libnds/lib\libnds9.a(video.o)
 .comment       0x00000000       0x23 c:/devkitpro/devkitarm/bin/../lib/gcc/arm-eabi/4.7.0/thumb\libgcc.a(_muldi3.o)
 .comment       0x00000000       0x23 c:/devkitpro/devkitarm/bin/../lib/gcc/arm-eabi/4.7.0/../../../../arm-eabi/lib/thumb\libg.a(lib_a-bsearch.o)
 .comment       0x00000000       0x23 c:/devkitpro/devkitarm/bin/../lib/gcc/arm-eabi/4.7.0/../../../../arm-eabi/lib/thumb\libg.a(lib_a-ctype_.o)
 .comment       0x00000000       0x23 c:/devkitpro/devkitarm/bin/../lib/gcc/arm-eabi/4.7.0/../../../../arm-eabi/lib/thumb\libg.a(lib_a-fclose.o)
 .comment       0x00000000       0x23 c:/devkitpro/devkitarm/bin/../lib/gcc/arm-eabi/4.7.0/../../../../arm-eabi/lib/thumb\libg.a(lib_a-fflush.o)
 .comment       0x00000000       0x23 c:/devkitpro/devkitarm/bin/../lib/gcc/arm-eabi/4.7.0/../../../../arm-eabi/lib/thumb\libg.a(lib_a-findfp.o)
 .comment       0x00000000       0x23 c:/devkitpro/devkitarm/bin/../lib/gcc/arm-eabi/4.7.0/../../../../arm-eabi/lib/thumb\libg.a(lib_a-fopen.o)
 .comment       0x00000000       0x23 c:/devkitpro/devkitarm/bin/../lib/gcc/arm-eabi/4.7.0/../../../../arm-eabi/lib/thumb\libg.a(lib_a-freer.o)
 .comment       0x00000000       0x23 c:/devkitpro/devkitarm/bin/../lib/gcc/arm-eabi/4.7.0/../../../../arm-eabi/lib/thumb\libg.a(lib_a-fseek.o)
 .comment       0x00000000       0x23 c:/devkitpro/devkitarm/bin/../lib/gcc/arm-eabi/4.7.0/../../../../arm-eabi/lib/thumb\libg.a(lib_a-fwalk.o)
 .comment       0x00000000       0x23 c:/devkitpro/devkitarm/bin/../lib/gcc/arm-eabi/4.7.0/../../../../arm-eabi/lib/thumb\libg.a(lib_a-fwrite.o)
 .comment       0x00000000       0x23 c:/devkitpro/devkitarm/bin/../lib/gcc/arm-eabi/4.7.0/../../../../arm-eabi/lib/thumb\libg.a(lib_a-impure.o)
 .comment       0x00000000       0x23 c:/devkitpro/devkitarm/bin/../lib/gcc/arm-eabi/4.7.0/../../../../arm-eabi/lib/thumb\libg.a(lib_a-init.o)
 .comment       0x00000000       0x23 c:/devkitpro/devkitarm/bin/../lib/gcc/arm-eabi/4.7.0/../../../../arm-eabi/lib/thumb\libg.a(lib_a-iprintf.o)
 .comment       0x00000000       0x23 c:/devkitpro/devkitarm/bin/../lib/gcc/arm-eabi/4.7.0/../../../../arm-eabi/lib/thumb\libg.a(lib_a-lcltime_r.o)
 .comment       0x00000000       0x23 c:/devkitpro/devkitarm/bin/../lib/gcc/arm-eabi/4.7.0/../../../../arm-eabi/lib/thumb\libg.a(lib_a-locale.o)
 .comment       0x00000000       0x23 c:/devkitpro/devkitarm/bin/../lib/gcc/arm-eabi/4.7.0/../../../../arm-eabi/lib/thumb\libg.a(lib_a-makebuf.o)
 .comment       0x00000000       0x23 c:/devkitpro/devkitarm/bin/../lib/gcc/arm-eabi/4.7.0/../../../../arm-eabi/lib/thumb\libg.a(lib_a-malloc.o)
 .comment       0x00000000       0x23 c:/devkitpro/devkitarm/bin/../lib/gcc/arm-eabi/4.7.0/../../../../arm-eabi/lib/thumb\libg.a(lib_a-mallocr.o)
 .comment       0x00000000       0x23 c:/devkitpro/devkitarm/bin/../lib/gcc/arm-eabi/4.7.0/../../../../arm-eabi/lib/thumb\libg.a(lib_a-mbrtowc.o)
 .comment       0x00000000       0x23 c:/devkitpro/devkitarm/bin/../lib/gcc/arm-eabi/4.7.0/../../../../arm-eabi/lib/thumb\libg.a(lib_a-mbsrtowcs.o)
 .comment       0x00000000       0x23 c:/devkitpro/devkitarm/bin/../lib/gcc/arm-eabi/4.7.0/../../../../arm-eabi/lib/thumb\libg.a(lib_a-mbtowc_r.o)
 .comment       0x00000000       0x23 c:/devkitpro/devkitarm/bin/../lib/gcc/arm-eabi/4.7.0/../../../../arm-eabi/lib/thumb\libg.a(lib_a-memcmp.o)
 .comment       0x00000000       0x23 c:/devkitpro/devkitarm/bin/../lib/gcc/arm-eabi/4.7.0/../../../../arm-eabi/lib/thumb\libg.a(lib_a-memcpy-stub.o)
 .comment       0x00000000       0x23 c:/devkitpro/devkitarm/bin/../lib/gcc/arm-eabi/4.7.0/../../../../arm-eabi/lib/thumb\libg.a(lib_a-memmove.o)
 .comment       0x00000000       0x23 c:/devkitpro/devkitarm/bin/../lib/gcc/arm-eabi/4.7.0/../../../../arm-eabi/lib/thumb\libg.a(lib_a-memset.o)
 .comment       0x00000000       0x23 c:/devkitpro/devkitarm/bin/../lib/gcc/arm-eabi/4.7.0/../../../../arm-eabi/lib/thumb\libg.a(lib_a-mktime.o)
 .comment       0x00000000       0x23 c:/devkitpro/devkitarm/bin/../lib/gcc/arm-eabi/4.7.0/../../../../arm-eabi/lib/thumb\libg.a(lib_a-mktm_r.o)
 .comment       0x00000000       0x23 c:/devkitpro/devkitarm/bin/../lib/gcc/arm-eabi/4.7.0/../../../../arm-eabi/lib/thumb\libg.a(lib_a-mlock.o)
 .comment       0x00000000       0x23 c:/devkitpro/devkitarm/bin/../lib/gcc/arm-eabi/4.7.0/../../../../arm-eabi/lib/thumb\libg.a(lib_a-refill.o)
 .comment       0x00000000       0x23 c:/devkitpro/devkitarm/bin/../lib/gcc/arm-eabi/4.7.0/../../../../arm-eabi/lib/thumb\libg.a(lib_a-setvbuf.o)
 .comment       0x00000000       0x23 c:/devkitpro/devkitarm/bin/../lib/gcc/arm-eabi/4.7.0/../../../../arm-eabi/lib/thumb\libg.a(lib_a-siscanf.o)
 .comment       0x00000000       0x23 c:/devkitpro/devkitarm/bin/../lib/gcc/arm-eabi/4.7.0/../../../../arm-eabi/lib/thumb\libg.a(lib_a-sprintf.o)
 .comment       0x00000000       0x23 c:/devkitpro/devkitarm/bin/../lib/gcc/arm-eabi/4.7.0/../../../../arm-eabi/lib/thumb\libg.a(lib_a-stdio.o)
 .comment       0x00000000       0x23 c:/devkitpro/devkitarm/bin/../lib/gcc/arm-eabi/4.7.0/../../../../arm-eabi/lib/thumb\libg.a(lib_a-strcasecmp.o)
 .comment       0x00000000       0x23 c:/devkitpro/devkitarm/bin/../lib/gcc/arm-eabi/4.7.0/../../../../arm-eabi/lib/thumb\libg.a(lib_a-strcat.o)
 .comment       0x00000000       0x23 c:/devkitpro/devkitarm/bin/../lib/gcc/arm-eabi/4.7.0/../../../../arm-eabi/lib/thumb\libg.a(lib_a-strchr.o)
 .comment       0x00000000       0x23 c:/devkitpro/devkitarm/bin/../lib/gcc/arm-eabi/4.7.0/../../../../arm-eabi/lib/thumb\libg.a(lib_a-strcmp.o)
 .comment       0x00000000       0x23 c:/devkitpro/devkitarm/bin/../lib/gcc/arm-eabi/4.7.0/../../../../arm-eabi/lib/thumb\libg.a(lib_a-strcpy.o)
 .comment       0x00000000       0x23 c:/devkitpro/devkitarm/bin/../lib/gcc/arm-eabi/4.7.0/../../../../arm-eabi/lib/thumb\libg.a(lib_a-strlcpy.o)
 .comment       0x00000000       0x23 c:/devkitpro/devkitarm/bin/../lib/gcc/arm-eabi/4.7.0/../../../../arm-eabi/lib/thumb\libg.a(lib_a-strlen.o)
 .comment       0x00000000       0x23 c:/devkitpro/devkitarm/bin/../lib/gcc/arm-eabi/4.7.0/../../../../arm-eabi/lib/thumb\libg.a(lib_a-strncasecmp.o)
 .comment       0x00000000       0x23 c:/devkitpro/devkitarm/bin/../lib/gcc/arm-eabi/4.7.0/../../../../arm-eabi/lib/thumb\libg.a(lib_a-strncmp.o)
 .comment       0x00000000       0x23 c:/devkitpro/devkitarm/bin/../lib/gcc/arm-eabi/4.7.0/../../../../arm-eabi/lib/thumb\libg.a(lib_a-strncpy.o)
 .comment       0x00000000       0x23 c:/devkitpro/devkitarm/bin/../lib/gcc/arm-eabi/4.7.0/../../../../arm-eabi/lib/thumb\libg.a(lib_a-strnlen.o)
 .comment       0x00000000       0x23 c:/devkitpro/devkitarm/bin/../lib/gcc/arm-eabi/4.7.0/../../../../arm-eabi/lib/thumb\libg.a(lib_a-strpbrk.o)
 .comment       0x00000000       0x23 c:/devkitpro/devkitarm/bin/../lib/gcc/arm-eabi/4.7.0/../../../../arm-eabi/lib/thumb\libg.a(lib_a-strrchr.o)
 .comment       0x00000000       0x23 c:/devkitpro/devkitarm/bin/../lib/gcc/arm-eabi/4.7.0/../../../../arm-eabi/lib/thumb\libg.a(lib_a-strtol.o)
 .comment       0x00000000       0x23 c:/devkitpro/devkitarm/bin/../lib/gcc/arm-eabi/4.7.0/../../../../arm-eabi/lib/thumb\libg.a(lib_a-svfiscanf.o)
 .comment       0x00000000       0x23 c:/devkitpro/devkitarm/bin/../lib/gcc/arm-eabi/4.7.0/../../../../arm-eabi/lib/thumb\libg.a(lib_a-svfprintf.o)
 .comment       0x00000000       0x23 c:/devkitpro/devkitarm/bin/../lib/gcc/arm-eabi/4.7.0/../../../../arm-eabi/lib/thumb\libg.a(lib_a-sysclose.o)
 .comment       0x00000000       0x23 c:/devkitpro/devkitarm/bin/../lib/gcc/arm-eabi/4.7.0/../../../../arm-eabi/lib/thumb\libg.a(lib_a-syslseek.o)
 .comment       0x00000000       0x23 c:/devkitpro/devkitarm/bin/../lib/gcc/arm-eabi/4.7.0/../../../../arm-eabi/lib/thumb\libg.a(lib_a-sysopen.o)
 .comment       0x00000000       0x23 c:/devkitpro/devkitarm/bin/../lib/gcc/arm-eabi/4.7.0/../../../../arm-eabi/lib/thumb\libg.a(lib_a-sysread.o)
 .comment       0x00000000       0x23 c:/devkitpro/devkitarm/bin/../lib/gcc/arm-eabi/4.7.0/../../../../arm-eabi/lib/thumb\libg.a(lib_a-time.o)
 .comment       0x00000000       0x23 c:/devkitpro/devkitarm/bin/../lib/gcc/arm-eabi/4.7.0/../../../../arm-eabi/lib/thumb\libg.a(lib_a-towlower.o)
 .comment       0x00000000       0x23 c:/devkitpro/devkitarm/bin/../lib/gcc/arm-eabi/4.7.0/../../../../arm-eabi/lib/thumb\libg.a(lib_a-towupper.o)
 .comment       0x00000000       0x23 c:/devkitpro/devkitarm/bin/../lib/gcc/arm-eabi/4.7.0/../../../../arm-eabi/lib/thumb\libg.a(lib_a-tzlock.o)
 .comment       0x00000000       0x23 c:/devkitpro/devkitarm/bin/../lib/gcc/arm-eabi/4.7.0/../../../../arm-eabi/lib/thumb\libg.a(lib_a-tzvars.o)
 .comment       0x00000000       0x23 c:/devkitpro/devkitarm/bin/../lib/gcc/arm-eabi/4.7.0/../../../../arm-eabi/lib/thumb\libg.a(lib_a-ungetc.o)
 .comment       0x00000000       0x23 c:/devkitpro/devkitarm/bin/../lib/gcc/arm-eabi/4.7.0/../../../../arm-eabi/lib/thumb\libg.a(lib_a-vfiprintf.o)
 .comment       0x00000000       0x23 c:/devkitpro/devkitarm/bin/../lib/gcc/arm-eabi/4.7.0/../../../../arm-eabi/lib/thumb\libg.a(lib_a-wcrtomb.o)
 .comment       0x00000000       0x23 c:/devkitpro/devkitarm/bin/../lib/gcc/arm-eabi/4.7.0/../../../../arm-eabi/lib/thumb\libg.a(lib_a-wcsrtombs.o)
 .comment       0x00000000       0x23 c:/devkitpro/devkitarm/bin/../lib/gcc/arm-eabi/4.7.0/../../../../arm-eabi/lib/thumb\libg.a(lib_a-wctob.o)
 .comment       0x00000000       0x23 c:/devkitpro/devkitarm/bin/../lib/gcc/arm-eabi/4.7.0/../../../../arm-eabi/lib/thumb\libg.a(lib_a-wctomb_r.o)
 .comment       0x00000000       0x23 c:/devkitpro/devkitarm/bin/../lib/gcc/arm-eabi/4.7.0/../../../../arm-eabi/lib/thumb\libg.a(lib_a-wsetup.o)
 .comment       0x00000000       0x23 c:/devkitpro/devkitarm/bin/../lib/gcc/arm-eabi/4.7.0/../../../../arm-eabi/lib/thumb\libg.a(lib_a-div.o)
 .comment       0x00000000       0x23 c:/devkitpro/devkitarm/bin/../lib/gcc/arm-eabi/4.7.0/../../../../arm-eabi/lib/thumb\libg.a(lib_a-dtoa.o)
 .comment       0x00000000       0x23 c:/devkitpro/devkitarm/bin/../lib/gcc/arm-eabi/4.7.0/../../../../arm-eabi/lib/thumb\libg.a(lib_a-flags.o)
 .comment       0x00000000       0x23 c:/devkitpro/devkitarm/bin/../lib/gcc/arm-eabi/4.7.0/../../../../arm-eabi/lib/thumb\libg.a(lib_a-fputwc.o)
 .comment       0x00000000       0x23 c:/devkitpro/devkitarm/bin/../lib/gcc/arm-eabi/4.7.0/../../../../arm-eabi/lib/thumb\libg.a(lib_a-fvwrite.o)
 .comment       0x00000000       0x23 c:/devkitpro/devkitarm/bin/../lib/gcc/arm-eabi/4.7.0/../../../../arm-eabi/lib/thumb\libg.a(lib_a-getenv_r.o)
 .comment       0x00000000       0x23 c:/devkitpro/devkitarm/bin/../lib/gcc/arm-eabi/4.7.0/../../../../arm-eabi/lib/thumb\libg.a(lib_a-gettzinfo.o)
 .comment       0x00000000       0x23 c:/devkitpro/devkitarm/bin/../lib/gcc/arm-eabi/4.7.0/../../../../arm-eabi/lib/thumb\libg.a(lib_a-iswspace.o)
 .comment       0x00000000       0x23 c:/devkitpro/devkitarm/bin/../lib/gcc/arm-eabi/4.7.0/../../../../arm-eabi/lib/thumb\libg.a(lib_a-jp2uc.o)
 .comment       0x00000000       0x23 c:/devkitpro/devkitarm/bin/../lib/gcc/arm-eabi/4.7.0/../../../../arm-eabi/lib/thumb\libg.a(lib_a-mbsnrtowcs.o)
 .comment       0x00000000       0x23 c:/devkitpro/devkitarm/bin/../lib/gcc/arm-eabi/4.7.0/../../../../arm-eabi/lib/thumb\libg.a(lib_a-memchr-stub.o)
 .comment       0x00000000       0x23 c:/devkitpro/devkitarm/bin/../lib/gcc/arm-eabi/4.7.0/../../../../arm-eabi/lib/thumb\libg.a(lib_a-mprec.o)
 .comment       0x00000000       0x23 c:/devkitpro/devkitarm/bin/../lib/gcc/arm-eabi/4.7.0/../../../../arm-eabi/lib/thumb\libg.a(lib_a-reallocr.o)
 .comment       0x00000000       0x23 c:/devkitpro/devkitarm/bin/../lib/gcc/arm-eabi/4.7.0/../../../../arm-eabi/lib/thumb\libg.a(lib_a-sccl.o)
 .comment       0x00000000       0x23 c:/devkitpro/devkitarm/bin/../lib/gcc/arm-eabi/4.7.0/../../../../arm-eabi/lib/thumb\libg.a(lib_a-s_fpclassify.o)
 .comment       0x00000000       0x23 c:/devkitpro/devkitarm/bin/../lib/gcc/arm-eabi/4.7.0/../../../../arm-eabi/lib/thumb\libg.a(lib_a-strtoll_r.o)
 .comment       0x00000000       0x23 c:/devkitpro/devkitarm/bin/../lib/gcc/arm-eabi/4.7.0/../../../../arm-eabi/lib/thumb\libg.a(lib_a-strtoull_r.o)
 .comment       0x00000000       0x23 c:/devkitpro/devkitarm/bin/../lib/gcc/arm-eabi/4.7.0/../../../../arm-eabi/lib/thumb\libg.a(lib_a-strtoul.o)
 .comment       0x00000000       0x23 c:/devkitpro/devkitarm/bin/../lib/gcc/arm-eabi/4.7.0/../../../../arm-eabi/lib/thumb\libg.a(lib_a-svfiprintf.o)
 .comment       0x00000000       0x23 c:/devkitpro/devkitarm/bin/../lib/gcc/arm-eabi/4.7.0/../../../../arm-eabi/lib/thumb\libg.a(lib_a-wbuf.o)
 .comment       0x00000000       0x23 c:/devkitpro/devkitarm/bin/../lib/gcc/arm-eabi/4.7.0/../../../../arm-eabi/lib/thumb\libg.a(lib_a-wcsnrtombs.o)
 .comment       0x00000000       0x23 c:/devkitpro/devkitarm/bin/../lib/gcc/arm-eabi/4.7.0/../../../../arm-eabi/lib/thumb\libg.a(lib_a-callocr.o)
 .comment       0x00000000       0x23 c:/devkitpro/devkitarm/bin/../lib/gcc/arm-eabi/4.7.0/../../../../arm-eabi/lib/thumb\libg.a(lib_a-environ.o)
 .comment       0x00000000       0x23 c:/devkitpro/devkitarm/bin/../lib/gcc/arm-eabi/4.7.0/../../../../arm-eabi/lib/thumb\libg.a(lib_a-envlock.o)
 .comment       0x00000000       0x23 c:/devkitpro/devkitarm/bin/../lib/gcc/arm-eabi/4.7.0/../../../../arm-eabi/lib/thumb\libsysbase.a(iosupport.o)
 .comment       0x00000000       0x23 c:/devkitpro/devkitarm/bin/../lib/gcc/arm-eabi/4.7.0/../../../../arm-eabi/lib/thumb\libsysbase.a(close.o)
 .comment       0x00000000       0x23 c:/devkitpro/devkitarm/bin/../lib/gcc/arm-eabi/4.7.0/../../../../arm-eabi/lib/thumb\libsysbase.a(fstat.o)
 .comment       0x00000000       0x23 c:/devkitpro/devkitarm/bin/../lib/gcc/arm-eabi/4.7.0/../../../../arm-eabi/lib/thumb\libsysbase.a(isatty.o)
 .comment       0x00000000       0x23 c:/devkitpro/devkitarm/bin/../lib/gcc/arm-eabi/4.7.0/../../../../arm-eabi/lib/thumb\libsysbase.a(lseek.o)
 .comment       0x00000000       0x23 c:/devkitpro/devkitarm/bin/../lib/gcc/arm-eabi/4.7.0/../../../../arm-eabi/lib/thumb\libsysbase.a(open.o)
 .comment       0x00000000       0x23 c:/devkitpro/devkitarm/bin/../lib/gcc/arm-eabi/4.7.0/../../../../arm-eabi/lib/thumb\libsysbase.a(read.o)
 .comment       0x00000000       0x23 c:/devkitpro/devkitarm/bin/../lib/gcc/arm-eabi/4.7.0/../../../../arm-eabi/lib/thumb\libsysbase.a(sbrk.o)
 .comment       0x00000000       0x23 c:/devkitpro/devkitarm/bin/../lib/gcc/arm-eabi/4.7.0/../../../../arm-eabi/lib/thumb\libsysbase.a(times.o)
 .comment       0x00000000       0x23 c:/devkitpro/devkitarm/bin/../lib/gcc/arm-eabi/4.7.0/../../../../arm-eabi/lib/thumb\libsysbase.a(write.o)
 .comment       0x00000000       0x23 c:/devkitpro/devkitarm/bin/../lib/gcc/arm-eabi/4.7.0/../../../../arm-eabi/lib/thumb\libsysbase.a(malloc_vars.o)
 .comment       0x00000000       0x23 c:/devkitpro/devkitarm/bin/../lib/gcc/arm-eabi/4.7.0/../../../../arm-eabi/lib/thumb\libsysbase.a(chdir.o)
 .comment       0x00000000       0x23 c:/devkitpro/devkitarm/bin/../lib/gcc/arm-eabi/4.7.0/../../../../arm-eabi/lib/thumb\libsysbase.a(build_argv.o)
 .comment       0x00000000       0x23 c:/devkitpro/devkitarm/bin/../lib/gcc/arm-eabi/4.7.0/../../../../arm-eabi/lib/thumb\libsysbase.a(syscall_support.o)
 .comment       0x00000000       0x23 c:/devkitpro/devkitarm/bin/../lib/gcc/arm-eabi/4.7.0/../../../../arm-eabi/lib/thumb\libsysbase.a(handle_manager.o)
 .comment       0x00000000       0x23 c:/devkitpro/devkitarm/bin/../lib/gcc/arm-eabi/4.7.0/thumb\libgcc.a(bpabi.o)
 .comment       0x00000000       0x23 c:/devkitpro/devkitarm/bin/../lib/gcc/arm-eabi/4.7.0/thumb\libgcc.a(_divdi3.o)
 .comment       0x00000000       0x23 c:/devkitpro/devkitarm/bin/../lib/gcc/arm-eabi/4.7.0/thumb\libgcc.a(_udivdi3.o)
 .comment       0x00000000       0x23 c:/devkitpro/devkitarm/bin/../lib/gcc/arm-eabi/4.7.0/thumb\libgcc.a(unwind-arm.o)
 .comment       0x00000000       0x23 c:/devkitpro/devkitarm/bin/../lib/gcc/arm-eabi/4.7.0/thumb\libgcc.a(pr-support.o)
 .comment       0x00000000       0x23 c:/devkitpro/devkitarm/bin/../lib/gcc/arm-eabi/4.7.0/../../../../arm-eabi/lib/thumb\libg.a(lib_a-abort.o)
 .comment       0x00000000       0x23 c:/devkitpro/devkitarm/bin/../lib/gcc/arm-eabi/4.7.0/../../../../arm-eabi/lib/thumb\libg.a(lib_a-errno.o)
 .comment       0x00000000       0x23 c:/devkitpro/devkitarm/bin/../lib/gcc/arm-eabi/4.7.0/../../../../arm-eabi/lib/thumb\libg.a(lib_a-signal.o)
 .comment       0x00000000       0x23 c:/devkitpro/devkitarm/bin/../lib/gcc/arm-eabi/4.7.0/../../../../arm-eabi/lib/thumb\libsysbase.a(getpid.o)
 .comment       0x00000000       0x23 c:/devkitpro/devkitarm/bin/../lib/gcc/arm-eabi/4.7.0/../../../../arm-eabi/lib/thumb\libsysbase.a(kill.o)
 .comment       0x00000000       0x23 c:/devkitpro/devkitarm/bin/../lib/gcc/arm-eabi/4.7.0/../../../../arm-eabi/lib/thumb\libsysbase.a(_exit.o)
 .comment       0x00000000       0x23 c:/devkitpro/devkitarm/bin/../lib/gcc/arm-eabi/4.7.0/thumb/crtend.o

.ARM.attributes
                0x00000000       0x2f
 .ARM.attributes
                0x00000000       0x23 c:/devkitpro/devkitarm/bin/../lib/gcc/arm-eabi/4.7.0/../../../../arm-eabi/lib/thumb/ds_arm9_crt0.o
 .ARM.attributes
                0x00000023       0x18 c:/devkitpro/devkitarm/bin/../lib/gcc/arm-eabi/4.7.0/thumb/crti.o
 .ARM.attributes
                0x0000003b       0x32 c:/devkitpro/devkitarm/bin/../lib/gcc/arm-eabi/4.7.0/thumb/crtbegin.o
 .ARM.attributes
                0x0000006d       0x29 main.o
 .ARM.attributes
                0x00000096       0x29 c:/devkitPro/libnds/lib\libfat.a(libfat.o)
 .ARM.attributes
                0x000000bf       0x29 c:/devkitPro/libnds/lib\libfat.a(partition.o)
 .ARM.attributes
                0x000000e8       0x29 c:/devkitPro/libnds/lib\libfat.a(cache.o)
 .ARM.attributes
                0x00000111       0x29 c:/devkitPro/libnds/lib\libfat.a(directory.o)
 .ARM.attributes
                0x0000013a       0x29 c:/devkitPro/libnds/lib\libfat.a(disc.o)
 .ARM.attributes
                0x00000163       0x29 c:/devkitPro/libnds/lib\libfat.a(fatdir.o)
 .ARM.attributes
                0x0000018c       0x29 c:/devkitPro/libnds/lib\libfat.a(fatfile.o)
 .ARM.attributes
                0x000001b5       0x29 c:/devkitPro/libnds/lib\libfat.a(file_allocation_table.o)
 .ARM.attributes
                0x000001de       0x29 c:/devkitPro/libnds/lib\libfat.a(filetime.o)
 .ARM.attributes
                0x00000207       0x29 c:/devkitPro/libnds/lib\libfat.a(lock.o)
 .ARM.attributes
                0x00000230       0x29 c:/devkitPro/libnds/lib\libnds9.a(console.o)
 .ARM.attributes
                0x00000259       0x29 c:/devkitPro/libnds/lib\libnds9.a(keys.o)
 .ARM.attributes
                0x00000282       0x29 c:/devkitPro/libnds/lib\libnds9.a(dldi.o)
 .ARM.attributes
                0x000002ab       0x29 c:/devkitPro/libnds/lib\libnds9.a(dsi_sd.o)
 .ARM.attributes
                0x000002d4       0x29 c:/devkitPro/libnds/lib\libnds9.a(initSystem.o)
 .ARM.attributes
                0x000002fd       0x29 c:/devkitPro/libnds/lib\libnds9.a(fifosystem.o)
 .ARM.attributes
                0x00000326       0x29 c:/devkitPro/libnds/lib\libnds9.a(interrupts.o)
 .ARM.attributes
                0x0000034f       0x29 c:/devkitPro/libnds/lib\libnds9.a(libnds_exit.o)
 .ARM.attributes
                0x00000378       0x1d c:/devkitPro/libnds/lib\libnds9.a(dcache.o)
 .ARM.attributes
                0x00000395       0x1d c:/devkitPro/libnds/lib\libnds9.a(dldi_stub.o)
 .ARM.attributes
                0x000003b2       0x23 c:/devkitPro/libnds/lib\libnds9.a(mpu_setup.o)
 .ARM.attributes
                0x000003d5       0x1d c:/devkitPro/libnds/lib\libnds9.a(biosCalls.o)
 .ARM.attributes
                0x000003f2       0x1d c:/devkitPro/libnds/lib\libnds9.a(debugprint.o)
 .ARM.attributes
                0x0000040f       0x1d c:/devkitPro/libnds/lib\libnds9.a(interruptDispatcher.o)
 .ARM.attributes
                0x0000042c       0x23 c:/devkitPro/libnds/lib\libnds9.a(swiSoftReset.o)
 .ARM.attributes
                0x0000044f       0x16 c:/devkitPro/libnds/lib\libnds9.a(default_font.bin.o)
 .ARM.attributes
                0x00000465       0x29 c:/devkitPro/libnds/lib\libnds9.a(background.o)
 .ARM.attributes
                0x0000048e       0x29 c:/devkitPro/libnds/lib\libnds9.a(system.o)
 .ARM.attributes
                0x000004b7       0x29 c:/devkitPro/libnds/lib\libnds9.a(trig.o)
 .ARM.attributes
                0x000004e0       0x29 c:/devkitPro/libnds/lib\libnds9.a(video.o)
 .ARM.attributes
                0x00000509       0x1a c:/devkitpro/devkitarm/bin/../lib/gcc/arm-eabi/4.7.0/thumb\libgcc.a(_udivsi3.o)
 .ARM.attributes
                0x00000523       0x1a c:/devkitpro/devkitarm/bin/../lib/gcc/arm-eabi/4.7.0/thumb\libgcc.a(_divsi3.o)
 .ARM.attributes
                0x0000053d       0x18 c:/devkitpro/devkitarm/bin/../lib/gcc/arm-eabi/4.7.0/thumb\libgcc.a(_dvmd_tls.o)
 .ARM.attributes
                0x00000555       0x32 c:/devkitpro/devkitarm/bin/../lib/gcc/arm-eabi/4.7.0/thumb\libgcc.a(_muldi3.o)
 .ARM.attributes
                0x00000587       0x32 c:/devkitpro/devkitarm/bin/../lib/gcc/arm-eabi/4.7.0/../../../../arm-eabi/lib/thumb\libg.a(lib_a-bsearch.o)
 .ARM.attributes
                0x000005b9       0x32 c:/devkitpro/devkitarm/bin/../lib/gcc/arm-eabi/4.7.0/../../../../arm-eabi/lib/thumb\libg.a(lib_a-ctype_.o)
 .ARM.attributes
                0x000005eb       0x32 c:/devkitpro/devkitarm/bin/../lib/gcc/arm-eabi/4.7.0/../../../../arm-eabi/lib/thumb\libg.a(lib_a-fclose.o)
 .ARM.attributes
                0x0000061d       0x32 c:/devkitpro/devkitarm/bin/../lib/gcc/arm-eabi/4.7.0/../../../../arm-eabi/lib/thumb\libg.a(lib_a-fflush.o)
 .ARM.attributes
                0x0000064f       0x32 c:/devkitpro/devkitarm/bin/../lib/gcc/arm-eabi/4.7.0/../../../../arm-eabi/lib/thumb\libg.a(lib_a-findfp.o)
 .ARM.attributes
                0x00000681       0x32 c:/devkitpro/devkitarm/bin/../lib/gcc/arm-eabi/4.7.0/../../../../arm-eabi/lib/thumb\libg.a(lib_a-fopen.o)
 .ARM.attributes
                0x000006b3       0x32 c:/devkitpro/devkitarm/bin/../lib/gcc/arm-eabi/4.7.0/../../../../arm-eabi/lib/thumb\libg.a(lib_a-freer.o)
 .ARM.attributes
                0x000006e5       0x32 c:/devkitpro/devkitarm/bin/../lib/gcc/arm-eabi/4.7.0/../../../../arm-eabi/lib/thumb\libg.a(lib_a-fseek.o)
 .ARM.attributes
                0x00000717       0x32 c:/devkitpro/devkitarm/bin/../lib/gcc/arm-eabi/4.7.0/../../../../arm-eabi/lib/thumb\libg.a(lib_a-fwalk.o)
 .ARM.attributes
                0x00000749       0x32 c:/devkitpro/devkitarm/bin/../lib/gcc/arm-eabi/4.7.0/../../../../arm-eabi/lib/thumb\libg.a(lib_a-fwrite.o)
 .ARM.attributes
                0x0000077b       0x32 c:/devkitpro/devkitarm/bin/../lib/gcc/arm-eabi/4.7.0/../../../../arm-eabi/lib/thumb\libg.a(lib_a-impure.o)
 .ARM.attributes
                0x000007ad       0x32 c:/devkitpro/devkitarm/bin/../lib/gcc/arm-eabi/4.7.0/../../../../arm-eabi/lib/thumb\libg.a(lib_a-init.o)
 .ARM.attributes
                0x000007df       0x32 c:/devkitpro/devkitarm/bin/../lib/gcc/arm-eabi/4.7.0/../../../../arm-eabi/lib/thumb\libg.a(lib_a-iprintf.o)
 .ARM.attributes
                0x00000811       0x32 c:/devkitpro/devkitarm/bin/../lib/gcc/arm-eabi/4.7.0/../../../../arm-eabi/lib/thumb\libg.a(lib_a-lcltime_r.o)
 .ARM.attributes
                0x00000843       0x32 c:/devkitpro/devkitarm/bin/../lib/gcc/arm-eabi/4.7.0/../../../../arm-eabi/lib/thumb\libg.a(lib_a-locale.o)
 .ARM.attributes
                0x00000875       0x32 c:/devkitpro/devkitarm/bin/../lib/gcc/arm-eabi/4.7.0/../../../../arm-eabi/lib/thumb\libg.a(lib_a-makebuf.o)
 .ARM.attributes
                0x000008a7       0x32 c:/devkitpro/devkitarm/bin/../lib/gcc/arm-eabi/4.7.0/../../../../arm-eabi/lib/thumb\libg.a(lib_a-malloc.o)
 .ARM.attributes
                0x000008d9       0x32 c:/devkitpro/devkitarm/bin/../lib/gcc/arm-eabi/4.7.0/../../../../arm-eabi/lib/thumb\libg.a(lib_a-mallocr.o)
 .ARM.attributes
                0x0000090b       0x32 c:/devkitpro/devkitarm/bin/../lib/gcc/arm-eabi/4.7.0/../../../../arm-eabi/lib/thumb\libg.a(lib_a-mbrtowc.o)
 .ARM.attributes
                0x0000093d       0x32 c:/devkitpro/devkitarm/bin/../lib/gcc/arm-eabi/4.7.0/../../../../arm-eabi/lib/thumb\libg.a(lib_a-mbsrtowcs.o)
 .ARM.attributes
                0x0000096f       0x32 c:/devkitpro/devkitarm/bin/../lib/gcc/arm-eabi/4.7.0/../../../../arm-eabi/lib/thumb\libg.a(lib_a-mbtowc_r.o)
 .ARM.attributes
                0x000009a1       0x32 c:/devkitpro/devkitarm/bin/../lib/gcc/arm-eabi/4.7.0/../../../../arm-eabi/lib/thumb\libg.a(lib_a-memcmp.o)
 .ARM.attributes
                0x000009d3       0x32 c:/devkitpro/devkitarm/bin/../lib/gcc/arm-eabi/4.7.0/../../../../arm-eabi/lib/thumb\libg.a(lib_a-memcpy-stub.o)
 .ARM.attributes
                0x00000a05       0x32 c:/devkitpro/devkitarm/bin/../lib/gcc/arm-eabi/4.7.0/../../../../arm-eabi/lib/thumb\libg.a(lib_a-memmove.o)
 .ARM.attributes
                0x00000a37       0x32 c:/devkitpro/devkitarm/bin/../lib/gcc/arm-eabi/4.7.0/../../../../arm-eabi/lib/thumb\libg.a(lib_a-memset.o)
 .ARM.attributes
                0x00000a69       0x32 c:/devkitpro/devkitarm/bin/../lib/gcc/arm-eabi/4.7.0/../../../../arm-eabi/lib/thumb\libg.a(lib_a-mktime.o)
 .ARM.attributes
                0x00000a9b       0x32 c:/devkitpro/devkitarm/bin/../lib/gcc/arm-eabi/4.7.0/../../../../arm-eabi/lib/thumb\libg.a(lib_a-mktm_r.o)
 .ARM.attributes
                0x00000acd       0x32 c:/devkitpro/devkitarm/bin/../lib/gcc/arm-eabi/4.7.0/../../../../arm-eabi/lib/thumb\libg.a(lib_a-mlock.o)
 .ARM.attributes
                0x00000aff       0x32 c:/devkitpro/devkitarm/bin/../lib/gcc/arm-eabi/4.7.0/../../../../arm-eabi/lib/thumb\libg.a(lib_a-refill.o)
 .ARM.attributes
                0x00000b31       0x32 c:/devkitpro/devkitarm/bin/../lib/gcc/arm-eabi/4.7.0/../../../../arm-eabi/lib/thumb\libg.a(lib_a-setvbuf.o)
 .ARM.attributes
                0x00000b63       0x32 c:/devkitpro/devkitarm/bin/../lib/gcc/arm-eabi/4.7.0/../../../../arm-eabi/lib/thumb\libg.a(lib_a-siscanf.o)
 .ARM.attributes
                0x00000b95       0x32 c:/devkitpro/devkitarm/bin/../lib/gcc/arm-eabi/4.7.0/../../../../arm-eabi/lib/thumb\libg.a(lib_a-sprintf.o)
 .ARM.attributes
                0x00000bc7       0x32 c:/devkitpro/devkitarm/bin/../lib/gcc/arm-eabi/4.7.0/../../../../arm-eabi/lib/thumb\libg.a(lib_a-stdio.o)
 .ARM.attributes
                0x00000bf9       0x32 c:/devkitpro/devkitarm/bin/../lib/gcc/arm-eabi/4.7.0/../../../../arm-eabi/lib/thumb\libg.a(lib_a-strcasecmp.o)
 .ARM.attributes
                0x00000c2b       0x32 c:/devkitpro/devkitarm/bin/../lib/gcc/arm-eabi/4.7.0/../../../../arm-eabi/lib/thumb\libg.a(lib_a-strcat.o)
 .ARM.attributes
                0x00000c5d       0x32 c:/devkitpro/devkitarm/bin/../lib/gcc/arm-eabi/4.7.0/../../../../arm-eabi/lib/thumb\libg.a(lib_a-strchr.o)
 .ARM.attributes
                0x00000c8f       0x32 c:/devkitpro/devkitarm/bin/../lib/gcc/arm-eabi/4.7.0/../../../../arm-eabi/lib/thumb\libg.a(lib_a-strcmp.o)
 .ARM.attributes
                0x00000cc1       0x32 c:/devkitpro/devkitarm/bin/../lib/gcc/arm-eabi/4.7.0/../../../../arm-eabi/lib/thumb\libg.a(lib_a-strcpy.o)
 .ARM.attributes
                0x00000cf3       0x32 c:/devkitpro/devkitarm/bin/../lib/gcc/arm-eabi/4.7.0/../../../../arm-eabi/lib/thumb\libg.a(lib_a-strlcpy.o)
 .ARM.attributes
                0x00000d25       0x32 c:/devkitpro/devkitarm/bin/../lib/gcc/arm-eabi/4.7.0/../../../../arm-eabi/lib/thumb\libg.a(lib_a-strlen.o)
 .ARM.attributes
                0x00000d57       0x32 c:/devkitpro/devkitarm/bin/../lib/gcc/arm-eabi/4.7.0/../../../../arm-eabi/lib/thumb\libg.a(lib_a-strncasecmp.o)
 .ARM.attributes
                0x00000d89       0x32 c:/devkitpro/devkitarm/bin/../lib/gcc/arm-eabi/4.7.0/../../../../arm-eabi/lib/thumb\libg.a(lib_a-strncmp.o)
 .ARM.attributes
                0x00000dbb       0x32 c:/devkitpro/devkitarm/bin/../lib/gcc/arm-eabi/4.7.0/../../../../arm-eabi/lib/thumb\libg.a(lib_a-strncpy.o)
 .ARM.attributes
                0x00000ded       0x32 c:/devkitpro/devkitarm/bin/../lib/gcc/arm-eabi/4.7.0/../../../../arm-eabi/lib/thumb\libg.a(lib_a-strnlen.o)
 .ARM.attributes
                0x00000e1f       0x32 c:/devkitpro/devkitarm/bin/../lib/gcc/arm-eabi/4.7.0/../../../../arm-eabi/lib/thumb\libg.a(lib_a-strpbrk.o)
 .ARM.attributes
                0x00000e51       0x32 c:/devkitpro/devkitarm/bin/../lib/gcc/arm-eabi/4.7.0/../../../../arm-eabi/lib/thumb\libg.a(lib_a-strrchr.o)
 .ARM.attributes
                0x00000e83       0x32 c:/devkitpro/devkitarm/bin/../lib/gcc/arm-eabi/4.7.0/../../../../arm-eabi/lib/thumb\libg.a(lib_a-strtol.o)
 .ARM.attributes
                0x00000eb5       0x32 c:/devkitpro/devkitarm/bin/../lib/gcc/arm-eabi/4.7.0/../../../../arm-eabi/lib/thumb\libg.a(lib_a-svfiscanf.o)
 .ARM.attributes
                0x00000ee7       0x32 c:/devkitpro/devkitarm/bin/../lib/gcc/arm-eabi/4.7.0/../../../../arm-eabi/lib/thumb\libg.a(lib_a-svfprintf.o)
 .ARM.attributes
                0x00000f19       0x32 c:/devkitpro/devkitarm/bin/../lib/gcc/arm-eabi/4.7.0/../../../../arm-eabi/lib/thumb\libg.a(lib_a-sysclose.o)
 .ARM.attributes
                0x00000f4b       0x32 c:/devkitpro/devkitarm/bin/../lib/gcc/arm-eabi/4.7.0/../../../../arm-eabi/lib/thumb\libg.a(lib_a-syslseek.o)
 .ARM.attributes
                0x00000f7d       0x32 c:/devkitpro/devkitarm/bin/../lib/gcc/arm-eabi/4.7.0/../../../../arm-eabi/lib/thumb\libg.a(lib_a-sysopen.o)
 .ARM.attributes
                0x00000faf       0x32 c:/devkitpro/devkitarm/bin/../lib/gcc/arm-eabi/4.7.0/../../../../arm-eabi/lib/thumb\libg.a(lib_a-sysread.o)
 .ARM.attributes
                0x00000fe1       0x32 c:/devkitpro/devkitarm/bin/../lib/gcc/arm-eabi/4.7.0/../../../../arm-eabi/lib/thumb\libg.a(lib_a-time.o)
 .ARM.attributes
                0x00001013       0x32 c:/devkitpro/devkitarm/bin/../lib/gcc/arm-eabi/4.7.0/../../../../arm-eabi/lib/thumb\libg.a(lib_a-towlower.o)
 .ARM.attributes
                0x00001045       0x32 c:/devkitpro/devkitarm/bin/../lib/gcc/arm-eabi/4.7.0/../../../../arm-eabi/lib/thumb\libg.a(lib_a-towupper.o)
 .ARM.attributes
                0x00001077       0x32 c:/devkitpro/devkitarm/bin/../lib/gcc/arm-eabi/4.7.0/../../../../arm-eabi/lib/thumb\libg.a(lib_a-tzlock.o)
 .ARM.attributes
                0x000010a9       0x32 c:/devkitpro/devkitarm/bin/../lib/gcc/arm-eabi/4.7.0/../../../../arm-eabi/lib/thumb\libg.a(lib_a-tzvars.o)
 .ARM.attributes
                0x000010db       0x32 c:/devkitpro/devkitarm/bin/../lib/gcc/arm-eabi/4.7.0/../../../../arm-eabi/lib/thumb\libg.a(lib_a-ungetc.o)
 .ARM.attributes
                0x0000110d       0x32 c:/devkitpro/devkitarm/bin/../lib/gcc/arm-eabi/4.7.0/../../../../arm-eabi/lib/thumb\libg.a(lib_a-vfiprintf.o)
 .ARM.attributes
                0x0000113f       0x32 c:/devkitpro/devkitarm/bin/../lib/gcc/arm-eabi/4.7.0/../../../../arm-eabi/lib/thumb\libg.a(lib_a-wcrtomb.o)
 .ARM.attributes
                0x00001171       0x32 c:/devkitpro/devkitarm/bin/../lib/gcc/arm-eabi/4.7.0/../../../../arm-eabi/lib/thumb\libg.a(lib_a-wcsrtombs.o)
 .ARM.attributes
                0x000011a3       0x32 c:/devkitpro/devkitarm/bin/../lib/gcc/arm-eabi/4.7.0/../../../../arm-eabi/lib/thumb\libg.a(lib_a-wctob.o)
 .ARM.attributes
                0x000011d5       0x32 c:/devkitpro/devkitarm/bin/../lib/gcc/arm-eabi/4.7.0/../../../../arm-eabi/lib/thumb\libg.a(lib_a-wctomb_r.o)
 .ARM.attributes
                0x00001207       0x32 c:/devkitpro/devkitarm/bin/../lib/gcc/arm-eabi/4.7.0/../../../../arm-eabi/lib/thumb\libg.a(lib_a-wsetup.o)
 .ARM.attributes
                0x00001239       0x32 c:/devkitpro/devkitarm/bin/../lib/gcc/arm-eabi/4.7.0/../../../../arm-eabi/lib/thumb\libg.a(lib_a-div.o)
 .ARM.attributes
                0x0000126b       0x32 c:/devkitpro/devkitarm/bin/../lib/gcc/arm-eabi/4.7.0/../../../../arm-eabi/lib/thumb\libg.a(lib_a-dtoa.o)
 .ARM.attributes
                0x0000129d       0x32 c:/devkitpro/devkitarm/bin/../lib/gcc/arm-eabi/4.7.0/../../../../arm-eabi/lib/thumb\libg.a(lib_a-flags.o)
 .ARM.attributes
                0x000012cf       0x32 c:/devkitpro/devkitarm/bin/../lib/gcc/arm-eabi/4.7.0/../../../../arm-eabi/lib/thumb\libg.a(lib_a-fputwc.o)
 .ARM.attributes
                0x00001301       0x32 c:/devkitpro/devkitarm/bin/../lib/gcc/arm-eabi/4.7.0/../../../../arm-eabi/lib/thumb\libg.a(lib_a-fvwrite.o)
 .ARM.attributes
                0x00001333       0x32 c:/devkitpro/devkitarm/bin/../lib/gcc/arm-eabi/4.7.0/../../../../arm-eabi/lib/thumb\libg.a(lib_a-getenv_r.o)
 .ARM.attributes
                0x00001365       0x32 c:/devkitpro/devkitarm/bin/../lib/gcc/arm-eabi/4.7.0/../../../../arm-eabi/lib/thumb\libg.a(lib_a-gettzinfo.o)
 .ARM.attributes
                0x00001397       0x32 c:/devkitpro/devkitarm/bin/../lib/gcc/arm-eabi/4.7.0/../../../../arm-eabi/lib/thumb\libg.a(lib_a-iswspace.o)
 .ARM.attributes
                0x000013c9       0x32 c:/devkitpro/devkitarm/bin/../lib/gcc/arm-eabi/4.7.0/../../../../arm-eabi/lib/thumb\libg.a(lib_a-jp2uc.o)
 .ARM.attributes
                0x000013fb       0x32 c:/devkitpro/devkitarm/bin/../lib/gcc/arm-eabi/4.7.0/../../../../arm-eabi/lib/thumb\libg.a(lib_a-mbsnrtowcs.o)
 .ARM.attributes
                0x0000142d       0x32 c:/devkitpro/devkitarm/bin/../lib/gcc/arm-eabi/4.7.0/../../../../arm-eabi/lib/thumb\libg.a(lib_a-memchr-stub.o)
 .ARM.attributes
                0x0000145f       0x32 c:/devkitpro/devkitarm/bin/../lib/gcc/arm-eabi/4.7.0/../../../../arm-eabi/lib/thumb\libg.a(lib_a-mprec.o)
 .ARM.attributes
                0x00001491       0x32 c:/devkitpro/devkitarm/bin/../lib/gcc/arm-eabi/4.7.0/../../../../arm-eabi/lib/thumb\libg.a(lib_a-reallocr.o)
 .ARM.attributes
                0x000014c3       0x32 c:/devkitpro/devkitarm/bin/../lib/gcc/arm-eabi/4.7.0/../../../../arm-eabi/lib/thumb\libg.a(lib_a-sccl.o)
 .ARM.attributes
                0x000014f5       0x32 c:/devkitpro/devkitarm/bin/../lib/gcc/arm-eabi/4.7.0/../../../../arm-eabi/lib/thumb\libg.a(lib_a-s_fpclassify.o)
 .ARM.attributes
                0x00001527       0x32 c:/devkitpro/devkitarm/bin/../lib/gcc/arm-eabi/4.7.0/../../../../arm-eabi/lib/thumb\libg.a(lib_a-strtoll_r.o)
 .ARM.attributes
                0x00001559       0x32 c:/devkitpro/devkitarm/bin/../lib/gcc/arm-eabi/4.7.0/../../../../arm-eabi/lib/thumb\libg.a(lib_a-strtoull_r.o)
 .ARM.attributes
                0x0000158b       0x32 c:/devkitpro/devkitarm/bin/../lib/gcc/arm-eabi/4.7.0/../../../../arm-eabi/lib/thumb\libg.a(lib_a-strtoul.o)
 .ARM.attributes
                0x000015bd       0x32 c:/devkitpro/devkitarm/bin/../lib/gcc/arm-eabi/4.7.0/../../../../arm-eabi/lib/thumb\libg.a(lib_a-svfiprintf.o)
 .ARM.attributes
                0x000015ef       0x32 c:/devkitpro/devkitarm/bin/../lib/gcc/arm-eabi/4.7.0/../../../../arm-eabi/lib/thumb\libg.a(lib_a-wbuf.o)
 .ARM.attributes
                0x00001621       0x32 c:/devkitpro/devkitarm/bin/../lib/gcc/arm-eabi/4.7.0/../../../../arm-eabi/lib/thumb\libg.a(lib_a-wcsnrtombs.o)
 .ARM.attributes
                0x00001653       0x32 c:/devkitpro/devkitarm/bin/../lib/gcc/arm-eabi/4.7.0/../../../../arm-eabi/lib/thumb\libg.a(lib_a-callocr.o)
 .ARM.attributes
                0x00001685       0x32 c:/devkitpro/devkitarm/bin/../lib/gcc/arm-eabi/4.7.0/../../../../arm-eabi/lib/thumb\libg.a(lib_a-environ.o)
 .ARM.attributes
                0x000016b7       0x32 c:/devkitpro/devkitarm/bin/../lib/gcc/arm-eabi/4.7.0/../../../../arm-eabi/lib/thumb\libg.a(lib_a-envlock.o)
 .ARM.attributes
                0x000016e9       0x32 c:/devkitpro/devkitarm/bin/../lib/gcc/arm-eabi/4.7.0/../../../../arm-eabi/lib/thumb\libsysbase.a(iosupport.o)
 .ARM.attributes
                0x0000171b       0x32 c:/devkitpro/devkitarm/bin/../lib/gcc/arm-eabi/4.7.0/../../../../arm-eabi/lib/thumb\libsysbase.a(close.o)
 .ARM.attributes
                0x0000174d       0x32 c:/devkitpro/devkitarm/bin/../lib/gcc/arm-eabi/4.7.0/../../../../arm-eabi/lib/thumb\libsysbase.a(fstat.o)
 .ARM.attributes
                0x0000177f       0x32 c:/devkitpro/devkitarm/bin/../lib/gcc/arm-eabi/4.7.0/../../../../arm-eabi/lib/thumb\libsysbase.a(isatty.o)
 .ARM.attributes
                0x000017b1       0x32 c:/devkitpro/devkitarm/bin/../lib/gcc/arm-eabi/4.7.0/../../../../arm-eabi/lib/thumb\libsysbase.a(lseek.o)
 .ARM.attributes
                0x000017e3       0x32 c:/devkitpro/devkitarm/bin/../lib/gcc/arm-eabi/4.7.0/../../../../arm-eabi/lib/thumb\libsysbase.a(open.o)
 .ARM.attributes
                0x00001815       0x32 c:/devkitpro/devkitarm/bin/../lib/gcc/arm-eabi/4.7.0/../../../../arm-eabi/lib/thumb\libsysbase.a(read.o)
 .ARM.attributes
                0x00001847       0x32 c:/devkitpro/devkitarm/bin/../lib/gcc/arm-eabi/4.7.0/../../../../arm-eabi/lib/thumb\libsysbase.a(sbrk.o)
 .ARM.attributes
                0x00001879       0x32 c:/devkitpro/devkitarm/bin/../lib/gcc/arm-eabi/4.7.0/../../../../arm-eabi/lib/thumb\libsysbase.a(times.o)
 .ARM.attributes
                0x000018ab       0x32 c:/devkitpro/devkitarm/bin/../lib/gcc/arm-eabi/4.7.0/../../../../arm-eabi/lib/thumb\libsysbase.a(write.o)
 .ARM.attributes
                0x000018dd       0x32 c:/devkitpro/devkitarm/bin/../lib/gcc/arm-eabi/4.7.0/../../../../arm-eabi/lib/thumb\libsysbase.a(malloc_vars.o)
 .ARM.attributes
                0x0000190f       0x32 c:/devkitpro/devkitarm/bin/../lib/gcc/arm-eabi/4.7.0/../../../../arm-eabi/lib/thumb\libsysbase.a(chdir.o)
 .ARM.attributes
                0x00001941       0x32 c:/devkitpro/devkitarm/bin/../lib/gcc/arm-eabi/4.7.0/../../../../arm-eabi/lib/thumb\libsysbase.a(build_argv.o)
 .ARM.attributes
                0x00001973       0x32 c:/devkitpro/devkitarm/bin/../lib/gcc/arm-eabi/4.7.0/../../../../arm-eabi/lib/thumb\libsysbase.a(syscall_support.o)
 .ARM.attributes
                0x000019a5       0x32 c:/devkitpro/devkitarm/bin/../lib/gcc/arm-eabi/4.7.0/../../../../arm-eabi/lib/thumb\libsysbase.a(handle_manager.o)
 .ARM.attributes
                0x000019d7       0x1a c:/devkitpro/devkitarm/bin/../lib/gcc/arm-eabi/4.7.0/thumb\libgcc.a(_arm_addsubdf3.o)
 .ARM.attributes
                0x000019f1       0x1a c:/devkitpro/devkitarm/bin/../lib/gcc/arm-eabi/4.7.0/thumb\libgcc.a(_arm_muldivdf3.o)
 .ARM.attributes
                0x00001a0b       0x1a c:/devkitpro/devkitarm/bin/../lib/gcc/arm-eabi/4.7.0/thumb\libgcc.a(_arm_cmpdf2.o)
 .ARM.attributes
                0x00001a25       0x1a c:/devkitpro/devkitarm/bin/../lib/gcc/arm-eabi/4.7.0/thumb\libgcc.a(_arm_fixdfsi.o)
 .ARM.attributes
                0x00001a3f       0x1a c:/devkitpro/devkitarm/bin/../lib/gcc/arm-eabi/4.7.0/thumb\libgcc.a(_aeabi_uldivmod.o)
 .ARM.attributes
                0x00001a59       0x32 c:/devkitpro/devkitarm/bin/../lib/gcc/arm-eabi/4.7.0/thumb\libgcc.a(bpabi.o)
 .ARM.attributes
                0x00001a8b       0x32 c:/devkitpro/devkitarm/bin/../lib/gcc/arm-eabi/4.7.0/thumb\libgcc.a(_divdi3.o)
 .ARM.attributes
                0x00001abd       0x32 c:/devkitpro/devkitarm/bin/../lib/gcc/arm-eabi/4.7.0/thumb\libgcc.a(_udivdi3.o)
 .ARM.attributes
                0x00001aef       0x32 c:/devkitpro/devkitarm/bin/../lib/gcc/arm-eabi/4.7.0/thumb\libgcc.a(unwind-arm.o)
 .ARM.attributes
                0x00001b21       0x1e c:/devkitpro/devkitarm/bin/../lib/gcc/arm-eabi/4.7.0/thumb\libgcc.a(libunwind.o)
 .ARM.attributes
                0x00001b3f       0x32 c:/devkitpro/devkitarm/bin/../lib/gcc/arm-eabi/4.7.0/thumb\libgcc.a(pr-support.o)
 .ARM.attributes
                0x00001b71       0x1a c:/devkitpro/devkitarm/bin/../lib/gcc/arm-eabi/4.7.0/thumb\libgcc.a(_clzsi2.o)
 .ARM.attributes
                0x00001b8b       0x32 c:/devkitpro/devkitarm/bin/../lib/gcc/arm-eabi/4.7.0/../../../../arm-eabi/lib/thumb\libg.a(lib_a-abort.o)
 .ARM.attributes
                0x00001bbd       0x32 c:/devkitpro/devkitarm/bin/../lib/gcc/arm-eabi/4.7.0/../../../../arm-eabi/lib/thumb\libg.a(lib_a-errno.o)
 .ARM.attributes
                0x00001bef       0x32 c:/devkitpro/devkitarm/bin/../lib/gcc/arm-eabi/4.7.0/../../../../arm-eabi/lib/thumb\libg.a(lib_a-signal.o)
 .ARM.attributes
                0x00001c21       0x32 c:/devkitpro/devkitarm/bin/../lib/gcc/arm-eabi/4.7.0/../../../../arm-eabi/lib/thumb\libsysbase.a(getpid.o)
 .ARM.attributes
                0x00001c53       0x32 c:/devkitpro/devkitarm/bin/../lib/gcc/arm-eabi/4.7.0/../../../../arm-eabi/lib/thumb\libsysbase.a(kill.o)
 .ARM.attributes
                0x00001c85       0x32 c:/devkitpro/devkitarm/bin/../lib/gcc/arm-eabi/4.7.0/../../../../arm-eabi/lib/thumb\libsysbase.a(_exit.o)
 .ARM.attributes
                0x00001cb7       0x32 c:/devkitpro/devkitarm/bin/../lib/gcc/arm-eabi/4.7.0/thumb/crtend.o
 .ARM.attributes
                0x00001ce9       0x18 c:/devkitpro/devkitarm/bin/../lib/gcc/arm-eabi/4.7.0/thumb/crtn.o

.debug
 *(.debug)

.line
 *(.line)

.debug_srcinfo
 *(.debug_srcinfo)

.debug_sfnames
 *(.debug_sfnames)

.debug_aranges  0x00000000      0x3c8
 *(.debug_aranges)
 .debug_aranges
                0x00000000       0x28 main.o
 .debug_aranges
                0x00000028       0x20 c:/devkitPro/libnds/lib\libfat.a(libfat.o)
 .debug_aranges
                0x00000048       0x20 c:/devkitPro/libnds/lib\libfat.a(partition.o)
 .debug_aranges
                0x00000068       0x20 c:/devkitPro/libnds/lib\libfat.a(cache.o)
 .debug_aranges
                0x00000088       0x20 c:/devkitPro/libnds/lib\libfat.a(directory.o)
 .debug_aranges
                0x000000a8       0x20 c:/devkitPro/libnds/lib\libfat.a(disc.o)
 .debug_aranges
                0x000000c8       0x20 c:/devkitPro/libnds/lib\libfat.a(fatdir.o)
 .debug_aranges
                0x000000e8       0x20 c:/devkitPro/libnds/lib\libfat.a(fatfile.o)
 .debug_aranges
                0x00000108       0x20 c:/devkitPro/libnds/lib\libfat.a(file_allocation_table.o)
 .debug_aranges
                0x00000128       0x20 c:/devkitPro/libnds/lib\libfat.a(filetime.o)
 .debug_aranges
                0x00000148       0x20 c:/devkitPro/libnds/lib\libfat.a(lock.o)
 .debug_aranges
                0x00000168       0x20 c:/devkitPro/libnds/lib\libnds9.a(console.o)
 .debug_aranges
                0x00000188       0x20 c:/devkitPro/libnds/lib\libnds9.a(keys.o)
 .debug_aranges
                0x000001a8       0x20 c:/devkitPro/libnds/lib\libnds9.a(dldi.o)
 .debug_aranges
                0x000001c8       0x20 c:/devkitPro/libnds/lib\libnds9.a(dsi_sd.o)
 .debug_aranges
                0x000001e8       0x20 c:/devkitPro/libnds/lib\libnds9.a(initSystem.o)
 .debug_aranges
                0x00000208       0x20 c:/devkitPro/libnds/lib\libnds9.a(fifosystem.o)
 .debug_aranges
                0x00000228       0x20 c:/devkitPro/libnds/lib\libnds9.a(interrupts.o)
 .debug_aranges
                0x00000248       0x20 c:/devkitPro/libnds/lib\libnds9.a(libnds_exit.o)
 .debug_aranges
                0x00000268       0x20 c:/devkitPro/libnds/lib\libnds9.a(dcache.o)
 .debug_aranges
                0x00000288       0x20 c:/devkitPro/libnds/lib\libnds9.a(dldi_stub.o)
 .debug_aranges
                0x000002a8       0x20 c:/devkitPro/libnds/lib\libnds9.a(mpu_setup.o)
 .debug_aranges
                0x000002c8       0x20 c:/devkitPro/libnds/lib\libnds9.a(biosCalls.o)
 .debug_aranges
                0x000002e8       0x20 c:/devkitPro/libnds/lib\libnds9.a(debugprint.o)
 .debug_aranges
                0x00000308       0x20 c:/devkitPro/libnds/lib\libnds9.a(interruptDispatcher.o)
 .debug_aranges
                0x00000328       0x20 c:/devkitPro/libnds/lib\libnds9.a(swiSoftReset.o)
 .debug_aranges
                0x00000348       0x20 c:/devkitPro/libnds/lib\libnds9.a(background.o)
 .debug_aranges
                0x00000368       0x20 c:/devkitPro/libnds/lib\libnds9.a(system.o)
 .debug_aranges
                0x00000388       0x20 c:/devkitPro/libnds/lib\libnds9.a(trig.o)
 .debug_aranges
                0x000003a8       0x20 c:/devkitPro/libnds/lib\libnds9.a(video.o)

.debug_pubnames
 *(.debug_pubnames)

.debug_info     0x00000000    0x14f8c
 *(.debug_info)
 .debug_info    0x00000000     0x1362 main.o
 .debug_info    0x00001362     0x19fc c:/devkitPro/libnds/lib\libfat.a(libfat.o)
 .debug_info    0x00002d5e     0x21cf c:/devkitPro/libnds/lib\libfat.a(partition.o)
 .debug_info    0x00004f2d      0xc24 c:/devkitPro/libnds/lib\libfat.a(cache.o)
 .debug_info    0x00005b51     0x1c5a c:/devkitPro/libnds/lib\libfat.a(directory.o)
 .debug_info    0x000077ab      0x275 c:/devkitPro/libnds/lib\libfat.a(disc.o)
 .debug_info    0x00007a20     0x1a11 c:/devkitPro/libnds/lib\libfat.a(fatdir.o)
 .debug_info    0x00009431     0x22fd c:/devkitPro/libnds/lib\libfat.a(fatfile.o)
 .debug_info    0x0000b72e      0x938 c:/devkitPro/libnds/lib\libfat.a(file_allocation_table.o)
 .debug_info    0x0000c066      0x1d3 c:/devkitPro/libnds/lib\libfat.a(filetime.o)
 .debug_info    0x0000c239      0x11b c:/devkitPro/libnds/lib\libfat.a(lock.o)
 .debug_info    0x0000c354     0x2420 c:/devkitPro/libnds/lib\libnds9.a(console.o)
 .debug_info    0x0000e774      0x415 c:/devkitPro/libnds/lib\libnds9.a(keys.o)
 .debug_info    0x0000eb89      0x7ee c:/devkitPro/libnds/lib\libnds9.a(dldi.o)
 .debug_info    0x0000f377      0x9cc c:/devkitPro/libnds/lib\libnds9.a(dsi_sd.o)
 .debug_info    0x0000fd43     0x1030 c:/devkitPro/libnds/lib\libnds9.a(initSystem.o)
 .debug_info    0x00010d73     0x1546 c:/devkitPro/libnds/lib\libnds9.a(fifosystem.o)
 .debug_info    0x000122b9      0x5b4 c:/devkitPro/libnds/lib\libnds9.a(interrupts.o)
 .debug_info    0x0001286d      0x323 c:/devkitPro/libnds/lib\libnds9.a(libnds_exit.o)
 .debug_info    0x00012b90       0xba c:/devkitPro/libnds/lib\libnds9.a(dcache.o)
 .debug_info    0x00012c4a       0xc2 c:/devkitPro/libnds/lib\libnds9.a(dldi_stub.o)
 .debug_info    0x00012d0c       0xc4 c:/devkitPro/libnds/lib\libnds9.a(mpu_setup.o)
 .debug_info    0x00012dd0       0xbf c:/devkitPro/libnds/lib\libnds9.a(biosCalls.o)
 .debug_info    0x00012e8f       0xc0 c:/devkitPro/libnds/lib\libnds9.a(debugprint.o)
 .debug_info    0x00012f4f       0xc9 c:/devkitPro/libnds/lib\libnds9.a(interruptDispatcher.o)
 .debug_info    0x00013018       0xc2 c:/devkitPro/libnds/lib\libnds9.a(swiSoftReset.o)
 .debug_info    0x000130da      0x91d c:/devkitPro/libnds/lib\libnds9.a(background.o)
 .debug_info    0x000139f7      0x91b c:/devkitPro/libnds/lib\libnds9.a(system.o)
 .debug_info    0x00014312      0x55c c:/devkitPro/libnds/lib\libnds9.a(trig.o)
 .debug_info    0x0001486e      0x71e c:/devkitPro/libnds/lib\libnds9.a(video.o)

.debug_abbrev   0x00000000     0x3bef
 *(.debug_abbrev)
 .debug_abbrev  0x00000000      0x2a9 main.o
 .debug_abbrev  0x000002a9      0x303 c:/devkitPro/libnds/lib\libfat.a(libfat.o)
 .debug_abbrev  0x000005ac      0x39e c:/devkitPro/libnds/lib\libfat.a(partition.o)
 .debug_abbrev  0x0000094a      0x297 c:/devkitPro/libnds/lib\libfat.a(cache.o)
 .debug_abbrev  0x00000be1      0x421 c:/devkitPro/libnds/lib\libfat.a(directory.o)
 .debug_abbrev  0x00001002       0xf6 c:/devkitPro/libnds/lib\libfat.a(disc.o)
 .debug_abbrev  0x000010f8      0x35a c:/devkitPro/libnds/lib\libfat.a(fatdir.o)
 .debug_abbrev  0x00001452      0x3fb c:/devkitPro/libnds/lib\libfat.a(fatfile.o)
 .debug_abbrev  0x0000184d      0x277 c:/devkitPro/libnds/lib\libfat.a(file_allocation_table.o)
 .debug_abbrev  0x00001ac4       0xa1 c:/devkitPro/libnds/lib\libfat.a(filetime.o)
 .debug_abbrev  0x00001b65       0x79 c:/devkitPro/libnds/lib\libfat.a(lock.o)
 .debug_abbrev  0x00001bde      0x50d c:/devkitPro/libnds/lib\libnds9.a(console.o)
 .debug_abbrev  0x000020eb      0x185 c:/devkitPro/libnds/lib\libnds9.a(keys.o)
 .debug_abbrev  0x00002270      0x26d c:/devkitPro/libnds/lib\libnds9.a(dldi.o)
 .debug_abbrev  0x000024dd      0x245 c:/devkitPro/libnds/lib\libnds9.a(dsi_sd.o)
 .debug_abbrev  0x00002722      0x2dc c:/devkitPro/libnds/lib\libnds9.a(initSystem.o)
 .debug_abbrev  0x000029fe      0x470 c:/devkitPro/libnds/lib\libnds9.a(fifosystem.o)
 .debug_abbrev  0x00002e6e      0x239 c:/devkitPro/libnds/lib\libnds9.a(interrupts.o)
 .debug_abbrev  0x000030a7      0x175 c:/devkitPro/libnds/lib\libnds9.a(libnds_exit.o)
 .debug_abbrev  0x0000321c       0x14 c:/devkitPro/libnds/lib\libnds9.a(dcache.o)
 .debug_abbrev  0x00003230       0x14 c:/devkitPro/libnds/lib\libnds9.a(dldi_stub.o)
 .debug_abbrev  0x00003244       0x14 c:/devkitPro/libnds/lib\libnds9.a(mpu_setup.o)
 .debug_abbrev  0x00003258       0x14 c:/devkitPro/libnds/lib\libnds9.a(biosCalls.o)
 .debug_abbrev  0x0000326c       0x14 c:/devkitPro/libnds/lib\libnds9.a(debugprint.o)
 .debug_abbrev  0x00003280       0x14 c:/devkitPro/libnds/lib\libnds9.a(interruptDispatcher.o)
 .debug_abbrev  0x00003294       0x14 c:/devkitPro/libnds/lib\libnds9.a(swiSoftReset.o)
 .debug_abbrev  0x000032a8      0x2d5 c:/devkitPro/libnds/lib\libnds9.a(background.o)
 .debug_abbrev  0x0000357d      0x26a c:/devkitPro/libnds/lib\libnds9.a(system.o)
 .debug_abbrev  0x000037e7      0x1ff c:/devkitPro/libnds/lib\libnds9.a(trig.o)
 .debug_abbrev  0x000039e6      0x209 c:/devkitPro/libnds/lib\libnds9.a(video.o)

.debug_line     0x00000000     0x5ecc
 *(.debug_line)
 .debug_line    0x00000000      0x2b5 main.o
 .debug_line    0x000002b5      0x3ea c:/devkitPro/libnds/lib\libfat.a(libfat.o)
 .debug_line    0x0000069f      0x6cc c:/devkitPro/libnds/lib\libfat.a(partition.o)
 .debug_line    0x00000d6b      0x3ad c:/devkitPro/libnds/lib\libfat.a(cache.o)
 .debug_line    0x00001118      0xabb c:/devkitPro/libnds/lib\libfat.a(directory.o)
 .debug_line    0x00001bd3      0x11b c:/devkitPro/libnds/lib\libfat.a(disc.o)
 .debug_line    0x00001cee      0x645 c:/devkitPro/libnds/lib\libfat.a(fatdir.o)
 .debug_line    0x00002333      0x96f c:/devkitPro/libnds/lib\libfat.a(fatfile.o)
 .debug_line    0x00002ca2      0x34d c:/devkitPro/libnds/lib\libfat.a(file_allocation_table.o)
 .debug_line    0x00002fef      0x168 c:/devkitPro/libnds/lib\libfat.a(filetime.o)
 .debug_line    0x00003157       0x80 c:/devkitPro/libnds/lib\libfat.a(lock.o)
 .debug_line    0x000031d7      0x721 c:/devkitPro/libnds/lib\libnds9.a(console.o)
 .debug_line    0x000038f8      0x247 c:/devkitPro/libnds/lib\libnds9.a(keys.o)
 .debug_line    0x00003b3f      0x3b0 c:/devkitPro/libnds/lib\libnds9.a(dldi.o)
 .debug_line    0x00003eef      0x227 c:/devkitPro/libnds/lib\libnds9.a(dsi_sd.o)
 .debug_line    0x00004116      0x386 c:/devkitPro/libnds/lib\libnds9.a(initSystem.o)
 .debug_line    0x0000449c      0x6cd c:/devkitPro/libnds/lib\libnds9.a(fifosystem.o)
 .debug_line    0x00004b69      0x272 c:/devkitPro/libnds/lib\libnds9.a(interrupts.o)
 .debug_line    0x00004ddb      0x1d2 c:/devkitPro/libnds/lib\libnds9.a(libnds_exit.o)
 .debug_line    0x00004fad       0xa2 c:/devkitPro/libnds/lib\libnds9.a(dcache.o)
 .debug_line    0x0000504f       0x8b c:/devkitPro/libnds/lib\libnds9.a(dldi_stub.o)
 .debug_line    0x000050da      0x101 c:/devkitPro/libnds/lib\libnds9.a(mpu_setup.o)
 .debug_line    0x000051db       0xc3 c:/devkitPro/libnds/lib\libnds9.a(biosCalls.o)
 .debug_line    0x0000529e       0x9f c:/devkitPro/libnds/lib\libnds9.a(debugprint.o)
 .debug_line    0x0000533d       0xc7 c:/devkitPro/libnds/lib\libnds9.a(interruptDispatcher.o)
 .debug_line    0x00005404       0x97 c:/devkitPro/libnds/lib\libnds9.a(swiSoftReset.o)
 .debug_line    0x0000549b      0x2b6 c:/devkitPro/libnds/lib\libnds9.a(background.o)
 .debug_line    0x00005751      0x28e c:/devkitPro/libnds/lib\libnds9.a(system.o)
 .debug_line    0x000059df      0x2a8 c:/devkitPro/libnds/lib\libnds9.a(trig.o)
 .debug_line    0x00005c87      0x245 c:/devkitPro/libnds/lib\libnds9.a(video.o)

.debug_frame    0x00000000     0x1654
 *(.debug_frame)
 .debug_frame   0x00000000       0x40 main.o
 .debug_frame   0x00000040       0xd4 c:/devkitPro/libnds/lib\libfat.a(libfat.o)
 .debug_frame   0x00000114      0x134 c:/devkitPro/libnds/lib\libfat.a(partition.o)
 .debug_frame   0x00000248      0x1c0 c:/devkitPro/libnds/lib\libfat.a(cache.o)
 .debug_frame   0x00000408      0x270 c:/devkitPro/libnds/lib\libfat.a(directory.o)
 .debug_frame   0x00000678       0x20 c:/devkitPro/libnds/lib\libfat.a(disc.o)
 .debug_frame   0x00000698      0x17c c:/devkitPro/libnds/lib\libfat.a(fatdir.o)
 .debug_frame   0x00000814      0x214 c:/devkitPro/libnds/lib\libfat.a(fatfile.o)
 .debug_frame   0x00000a28      0x120 c:/devkitPro/libnds/lib\libfat.a(file_allocation_table.o)
 .debug_frame   0x00000b48       0x60 c:/devkitPro/libnds/lib\libfat.a(filetime.o)
 .debug_frame   0x00000ba8       0x50 c:/devkitPro/libnds/lib\libfat.a(lock.o)
 .debug_frame   0x00000bf8      0x1ac c:/devkitPro/libnds/lib\libnds9.a(console.o)
 .debug_frame   0x00000da4       0x8c c:/devkitPro/libnds/lib\libnds9.a(keys.o)
 .debug_frame   0x00000e30       0x94 c:/devkitPro/libnds/lib\libnds9.a(dldi.o)
 .debug_frame   0x00000ec4       0xa0 c:/devkitPro/libnds/lib\libnds9.a(dsi_sd.o)
 .debug_frame   0x00000f64       0x2c c:/devkitPro/libnds/lib\libnds9.a(initSystem.o)
 .debug_frame   0x00000f90      0x2b8 c:/devkitPro/libnds/lib\libnds9.a(fifosystem.o)
 .debug_frame   0x00001248       0xb4 c:/devkitPro/libnds/lib\libnds9.a(interrupts.o)
 .debug_frame   0x000012fc       0x38 c:/devkitPro/libnds/lib\libnds9.a(libnds_exit.o)
 .debug_frame   0x00001334       0xa4 c:/devkitPro/libnds/lib\libnds9.a(background.o)
 .debug_frame   0x000013d8       0xc8 c:/devkitPro/libnds/lib\libnds9.a(system.o)
 .debug_frame   0x000014a0       0xf0 c:/devkitPro/libnds/lib\libnds9.a(trig.o)
 .debug_frame   0x00001590       0xc4 c:/devkitPro/libnds/lib\libnds9.a(video.o)

.debug_str      0x00000000     0x4c49
 *(.debug_str)
 .debug_str     0x00000000      0x8f7 main.o
                                0x9c4 (size before relaxing)
 .debug_str     0x000008f7      0x6b4 c:/devkitPro/libnds/lib\libfat.a(libfat.o)
                                0xcad (size before relaxing)
 .debug_str     0x00000fab      0x54a c:/devkitPro/libnds/lib\libfat.a(partition.o)
                               0x1073 (size before relaxing)
 .debug_str     0x000014f5      0x20e c:/devkitPro/libnds/lib\libfat.a(cache.o)
                                0x510 (size before relaxing)
 .debug_str     0x00001703      0x78c c:/devkitPro/libnds/lib\libfat.a(directory.o)
                                0xd49 (size before relaxing)
 .debug_str     0x00001e8f       0x62 c:/devkitPro/libnds/lib\libfat.a(disc.o)
                                0x241 (size before relaxing)
 .debug_str     0x00001ef1      0x1c2 c:/devkitPro/libnds/lib\libfat.a(fatdir.o)
                                0xcc1 (size before relaxing)
 .debug_str     0x000020b3      0x211 c:/devkitPro/libnds/lib\libfat.a(fatfile.o)
                                0xd6c (size before relaxing)
 .debug_str     0x000022c4      0x167 c:/devkitPro/libnds/lib\libfat.a(file_allocation_table.o)
                                0x592 (size before relaxing)
 .debug_str     0x0000242b       0xb4 c:/devkitPro/libnds/lib\libfat.a(filetime.o)
                                0x1ac (size before relaxing)
 .debug_str     0x000024df       0x86 c:/devkitPro/libnds/lib\libfat.a(lock.o)
                                0x127 (size before relaxing)
 .debug_str     0x00002565      0x7a1 c:/devkitPro/libnds/lib\libnds9.a(console.o)
                               0x10c6 (size before relaxing)
 .debug_str     0x00002d06      0x168 c:/devkitPro/libnds/lib\libnds9.a(keys.o)
                                0x2f5 (size before relaxing)
 .debug_str     0x00002e6e      0x209 c:/devkitPro/libnds/lib\libnds9.a(dldi.o)
                                0x415 (size before relaxing)
 .debug_str     0x00003077      0x376 c:/devkitPro/libnds/lib\libnds9.a(dsi_sd.o)
                                0x577 (size before relaxing)
 .debug_str     0x000033ed      0x392 c:/devkitPro/libnds/lib\libnds9.a(initSystem.o)
                                0xa02 (size before relaxing)
 .debug_str     0x0000377f      0x490 c:/devkitPro/libnds/lib\libnds9.a(fifosystem.o)
                                0x793 (size before relaxing)
 .debug_str     0x00003c0f      0x10e c:/devkitPro/libnds/lib\libnds9.a(interrupts.o)
                                0x382 (size before relaxing)
 .debug_str     0x00003d1d      0x13e c:/devkitPro/libnds/lib\libnds9.a(libnds_exit.o)
                                0x2c2 (size before relaxing)
 .debug_str     0x00003e5b      0x2d0 c:/devkitPro/libnds/lib\libnds9.a(background.o)
                                0x687 (size before relaxing)
 .debug_str     0x0000412b      0x12e c:/devkitPro/libnds/lib\libnds9.a(system.o)
                                0x5dd (size before relaxing)
 .debug_str     0x00004259       0xf0 c:/devkitPro/libnds/lib\libnds9.a(trig.o)
                                0x1e9 (size before relaxing)
 .debug_str     0x00004349      0x900 c:/devkitPro/libnds/lib\libnds9.a(video.o)
                                0xb3e (size before relaxing)

.debug_loc      0x00000000     0xc7af
 *(.debug_loc)
 .debug_loc     0x00000000       0xae main.o
 .debug_loc     0x000000ae      0x4cc c:/devkitPro/libnds/lib\libfat.a(libfat.o)
 .debug_loc     0x0000057a      0xc63 c:/devkitPro/libnds/lib\libfat.a(partition.o)
 .debug_loc     0x000011dd      0xd95 c:/devkitPro/libnds/lib\libfat.a(cache.o)
 .debug_loc     0x00001f72     0x271d c:/devkitPro/libnds/lib\libfat.a(directory.o)
 .debug_loc     0x0000468f      0xe20 c:/devkitPro/libnds/lib\libfat.a(fatdir.o)
 .debug_loc     0x000054af     0x27d3 c:/devkitPro/libnds/lib\libfat.a(fatfile.o)
 .debug_loc     0x00007c82      0x9f1 c:/devkitPro/libnds/lib\libfat.a(file_allocation_table.o)
 .debug_loc     0x00008673       0xaa c:/devkitPro/libnds/lib\libfat.a(filetime.o)
 .debug_loc     0x0000871d      0xffa c:/devkitPro/libnds/lib\libnds9.a(console.o)
 .debug_loc     0x00009717       0x20 c:/devkitPro/libnds/lib\libnds9.a(keys.o)
 .debug_loc     0x00009737      0x2e0 c:/devkitPro/libnds/lib\libnds9.a(dldi.o)
 .debug_loc     0x00009a17      0x2f2 c:/devkitPro/libnds/lib\libnds9.a(dsi_sd.o)
 .debug_loc     0x00009d09       0x3f c:/devkitPro/libnds/lib\libnds9.a(initSystem.o)
 .debug_loc     0x00009d48     0x149c c:/devkitPro/libnds/lib\libnds9.a(fifosystem.o)
 .debug_loc     0x0000b1e4      0x22a c:/devkitPro/libnds/lib\libnds9.a(interrupts.o)
 .debug_loc     0x0000b40e       0x78 c:/devkitPro/libnds/lib\libnds9.a(libnds_exit.o)
 .debug_loc     0x0000b486      0x3dc c:/devkitPro/libnds/lib\libnds9.a(background.o)
 .debug_loc     0x0000b862      0x2cf c:/devkitPro/libnds/lib\libnds9.a(system.o)
 .debug_loc     0x0000bb31      0x9dd c:/devkitPro/libnds/lib\libnds9.a(trig.o)
 .debug_loc     0x0000c50e      0x2a1 c:/devkitPro/libnds/lib\libnds9.a(video.o)

.debug_macinfo
 *(.debug_macinfo)

.debug_weaknames
 *(.debug_weaknames)

.debug_funcnames
 *(.debug_funcnames)

.debug_typenames
 *(.debug_typenames)

.debug_varnames
 *(.debug_varnames)

.stack          0x00080000        0x0
                0x00080000                _stack = .
 *(.stack)
LOAD c:/devkitpro/devkitarm/bin/../lib/gcc/arm-eabi/4.7.0/../../../../arm-eabi/lib/thumb/ds_arm9_crt0.o
LOAD c:/devkitpro/devkitarm/bin/../lib/gcc/arm-eabi/4.7.0/thumb/crti.o
LOAD c:/devkitpro/devkitarm/bin/../lib/gcc/arm-eabi/4.7.0/thumb/crtbegin.o
LOAD main.o
LOAD c:/devkitPro/libnds/lib\libfat.a
LOAD c:/devkitPro/libnds/lib\libnds9.a
START GROUP
LOAD c:/devkitpro/devkitarm/bin/../lib/gcc/arm-eabi/4.7.0/thumb\libgcc.a
LOAD c:/devkitpro/devkitarm/bin/../lib/gcc/arm-eabi/4.7.0/../../../../arm-eabi/lib/thumb\libg.a
LOAD c:/devkitpro/devkitarm/bin/../lib/gcc/arm-eabi/4.7.0/../../../../arm-eabi/lib/thumb\libc.a
LOAD c:/devkitpro/devkitarm/bin/../lib/gcc/arm-eabi/4.7.0/../../../../arm-eabi/lib/thumb\libsysbase.a
END GROUP
LOAD c:/devkitpro/devkitarm/bin/../lib/gcc/arm-eabi/4.7.0/thumb/crtend.o
LOAD c:/devkitpro/devkitarm/bin/../lib/gcc/arm-eabi/4.7.0/thumb/crtn.o
OUTPUT(f:/Project/NDS/NVReader/arm9/NVReader.elf elf32-littlearm)

.debug_ranges   0x00000000     0x1438
 .debug_ranges  0x00000000       0x18 main.o
 .debug_ranges  0x00000018       0x60 c:/devkitPro/libnds/lib\libfat.a(libfat.o)
 .debug_ranges  0x00000078      0x1e8 c:/devkitPro/libnds/lib\libfat.a(partition.o)
 .debug_ranges  0x00000260       0x18 c:/devkitPro/libnds/lib\libfat.a(cache.o)
 .debug_ranges  0x00000278      0x360 c:/devkitPro/libnds/lib\libfat.a(directory.o)
 .debug_ranges  0x000005d8      0x170 c:/devkitPro/libnds/lib\libfat.a(fatdir.o)
 .debug_ranges  0x00000748      0x2c8 c:/devkitPro/libnds/lib\libfat.a(fatfile.o)
 .debug_ranges  0x00000a10       0xb0 c:/devkitPro/libnds/lib\libfat.a(file_allocation_table.o)
 .debug_ranges  0x00000ac0      0x238 c:/devkitPro/libnds/lib\libnds9.a(console.o)
 .debug_ranges  0x00000cf8       0x30 c:/devkitPro/libnds/lib\libnds9.a(dldi.o)
 .debug_ranges  0x00000d28      0x490 c:/devkitPro/libnds/lib\libnds9.a(fifosystem.o)
 .debug_ranges  0x000011b8      0x120 c:/devkitPro/libnds/lib\libnds9.a(interrupts.o)
 .debug_ranges  0x000012d8       0x78 c:/devkitPro/libnds/lib\libnds9.a(background.o)
 .debug_ranges  0x00001350       0x70 c:/devkitPro/libnds/lib\libnds9.a(trig.o)
 .debug_ranges  0x000013c0       0x78 c:/devkitPro/libnds/lib\libnds9.a(video.o)
